libhwy.so.1 libhwy1t64 #MINVER#
 HWY_0@HWY_0 1.0.0
 _ZN3hwy11HaveFloat16Ev@HWY_0 1.0.5
 _ZN3hwy11HaveFloat64Ev@HWY_0 1.0.5
 _ZN3hwy11VectorBytesEv@HWY_0 1.0.5
 _ZN3hwy14AlignedDeleter18DeleteAlignedArrayEPvPFvS1_S1_ES1_PFvS1_jE@HWY_0 0.16.0
 _ZN3hwy14DisableTargetsEx@HWY_0 1.0.0
 _ZN3hwy14Unpredictable1Ev@HWY_0 0.16.0
 _ZN3hwy15GetChosenTargetEv@HWY_0 0.16.0
 _ZN3hwy16FreeAlignedBytesEPKvPFvPvS2_ES2_@HWY_0 0.16.0
 _ZN3hwy16SupportedTargetsEv@HWY_0 0.16.0
 _ZN3hwy20AllocateAlignedBytesEjPFPvS0_jES0_@HWY_0 0.16.0
 _ZN3hwy26SetSupportedTargetsForTestEx@HWY_0 1.0.0
 _ZN3hwy5AbortEPKciS1_z@HWY_0 0.16.0
 _ZN3hwy6detail10PrintArrayERKNS0_8TypeInfoEPKcPKvjjj@HWY_0 0.16.0
 _ZN3hwy6detail8ToStringERKNS0_8TypeInfoEPKvPc@HWY_0 0.17.0
 _ZN3hwy6detail8TypeNameERKNS0_8TypeInfoEjPc@HWY_0 0.16.0
 _ZN3hwy7MeasureEPFyPKvjEPKhPKjjPNS_6ResultERKNS_6ParamsE@HWY_0 0.16.0
 _ZN3hwy8platform13HaveTimerStopEPc@HWY_0 1.0.5
 _ZN3hwy8platform15TimerResolutionEv@HWY_0 0.16.0
 _ZN3hwy8platform23InvariantTicksPerSecondEv@HWY_0 0.16.0
 _ZN3hwy8platform3NowEv@HWY_0 0.16.0
libhwy_contrib.so.1 libhwy1t64 #MINVER#
 HWY_0@HWY_0 1.0.0
 _ZN3hwy17Fill16BytesSecureEPv@HWY_0 1.0.5
 _ZN3hwy17GetGeneratorStateEv@HWY_0 1.0.5
 _ZN3hwy6Sorter11Fill24BytesEPKvjPv@HWY_0 0.16.0
 _ZN3hwy6Sorter11HaveFloat64Ev@HWY_0 0.16.0
 _ZN3hwy6Sorter6DeleteEv@HWY_0 0.16.0
 _ZN3hwy6SorterC1Ev@HWY_0 0.16.0
 _ZN3hwy6SorterC2Ev@HWY_0 0.16.0
 _ZN3hwy6VQSortEPNS_6K32V32EjNS_13SortAscendingE@HWY_0 1.0.5
 _ZN3hwy6VQSortEPNS_6K32V32EjNS_14SortDescendingE@HWY_0 1.0.5
 _ZN3hwy6VQSortEPNS_6K64V64EjNS_13SortAscendingE@HWY_0 1.0.5
 _ZN3hwy6VQSortEPNS_6K64V64EjNS_14SortDescendingE@HWY_0 1.0.5
 _ZN3hwy6VQSortEPNS_9float16_tEjNS_13SortAscendingE@HWY_0 1.0.5
 _ZN3hwy6VQSortEPNS_9float16_tEjNS_14SortDescendingE@HWY_0 1.0.5
 _ZN3hwy6VQSortEPNS_9uint128_tEjNS_13SortAscendingE@HWY_0 1.0.5
 _ZN3hwy6VQSortEPNS_9uint128_tEjNS_14SortDescendingE@HWY_0 1.0.5
 _ZN3hwy6VQSortEPdjNS_13SortAscendingE@HWY_0 1.0.5
 _ZN3hwy6VQSortEPdjNS_14SortDescendingE@HWY_0 1.0.5
 _ZN3hwy6VQSortEPfjNS_13SortAscendingE@HWY_0 1.0.5
 _ZN3hwy6VQSortEPfjNS_14SortDescendingE@HWY_0 1.0.5
 _ZN3hwy6VQSortEPijNS_13SortAscendingE@HWY_0 1.0.5
 _ZN3hwy6VQSortEPijNS_14SortDescendingE@HWY_0 1.0.5
 _ZN3hwy6VQSortEPjjNS_13SortAscendingE@HWY_0 1.0.5
 _ZN3hwy6VQSortEPjjNS_14SortDescendingE@HWY_0 1.0.5
 _ZN3hwy6VQSortEPsjNS_13SortAscendingE@HWY_0 1.0.5
 _ZN3hwy6VQSortEPsjNS_14SortDescendingE@HWY_0 1.0.5
 _ZN3hwy6VQSortEPtjNS_13SortAscendingE@HWY_0 1.0.5
 _ZN3hwy6VQSortEPtjNS_14SortDescendingE@HWY_0 1.0.5
 _ZN3hwy6VQSortEPxjNS_13SortAscendingE@HWY_0 1.0.5
 _ZN3hwy6VQSortEPxjNS_14SortDescendingE@HWY_0 1.0.5
 _ZN3hwy6VQSortEPyjNS_13SortAscendingE@HWY_0 1.0.5
 _ZN3hwy6VQSortEPyjNS_14SortDescendingE@HWY_0 1.0.5
 _ZN3hwy9ImageBase10VectorSizeEv@HWY_0 0.16.0
 _ZN3hwy9ImageBase11BytesPerRowEjj@HWY_0 0.16.0
 _ZN3hwy9ImageBase17InitializePaddingEjNS0_7PaddingE@HWY_0 0.16.0
 _ZN3hwy9ImageBase4SwapERS0_@HWY_0 0.16.0
 _ZN3hwy9ImageBaseC1Ejjj@HWY_0 0.16.0
 _ZN3hwy9ImageBaseC1EjjjPv@HWY_0 0.16.0
 _ZN3hwy9ImageBaseC2Ejjj@HWY_0 0.16.0
 _ZN3hwy9ImageBaseC2EjjjPv@HWY_0 0.16.0
 _ZNK3hwy6SorterclEPNS_6K32V32EjNS_13SortAscendingE@HWY_0 1.0.2
 _ZNK3hwy6SorterclEPNS_6K32V32EjNS_14SortDescendingE@HWY_0 1.0.2
 _ZNK3hwy6SorterclEPNS_6K64V64EjNS_13SortAscendingE@HWY_0 1.0.0
 _ZNK3hwy6SorterclEPNS_6K64V64EjNS_14SortDescendingE@HWY_0 1.0.0
 _ZNK3hwy6SorterclEPNS_9float16_tEjNS_13SortAscendingE@HWY_0 1.0.5
 _ZNK3hwy6SorterclEPNS_9float16_tEjNS_14SortDescendingE@HWY_0 1.0.5
 _ZNK3hwy6SorterclEPNS_9uint128_tEjNS_13SortAscendingE@HWY_0 0.16.0
 _ZNK3hwy6SorterclEPNS_9uint128_tEjNS_14SortDescendingE@HWY_0 0.16.0
 _ZNK3hwy6SorterclEPdjNS_13SortAscendingE@HWY_0 0.16.0
 _ZNK3hwy6SorterclEPdjNS_14SortDescendingE@HWY_0 0.16.0
 _ZNK3hwy6SorterclEPfjNS_13SortAscendingE@HWY_0 0.16.0
 _ZNK3hwy6SorterclEPfjNS_14SortDescendingE@HWY_0 0.16.0
 _ZNK3hwy6SorterclEPijNS_13SortAscendingE@HWY_0 0.16.0
 _ZNK3hwy6SorterclEPijNS_14SortDescendingE@HWY_0 0.16.0
 _ZNK3hwy6SorterclEPjjNS_13SortAscendingE@HWY_0 0.16.0
 _ZNK3hwy6SorterclEPjjNS_14SortDescendingE@HWY_0 0.16.0
 _ZNK3hwy6SorterclEPsjNS_13SortAscendingE@HWY_0 0.16.0
 _ZNK3hwy6SorterclEPsjNS_14SortDescendingE@HWY_0 0.16.0
 _ZNK3hwy6SorterclEPtjNS_13SortAscendingE@HWY_0 0.16.0
 _ZNK3hwy6SorterclEPtjNS_14SortDescendingE@HWY_0 0.16.0
 _ZNK3hwy6SorterclEPxjNS_13SortAscendingE@HWY_0 0.16.0
 _ZNK3hwy6SorterclEPxjNS_14SortDescendingE@HWY_0 0.16.0
 _ZNK3hwy6SorterclEPyjNS_13SortAscendingE@HWY_0 0.16.0
 _ZNK3hwy6SorterclEPyjNS_14SortDescendingE@HWY_0 0.16.0
libhwy_test.so.1 libhwy1t64 #MINVER#
 HWY_0@HWY_0 1.0.0
 _ZN3hwy10BytesEqualEPKvS1_jPj@HWY_0 0.16.0
 _ZN3hwy6detail16AssertArrayEqualERKNS0_8TypeInfoEPKvS5_jPKcS7_i@HWY_0 0.16.0
 _ZN3hwy6detail21PrintMismatchAndAbortERKNS0_8TypeInfoEPKvS5_PKcS7_ijj@HWY_0 0.16.0
 _ZN3hwy6detail7IsEqualERKNS0_8TypeInfoEPKvS5_@HWY_0 0.16.0
