libLerc.so.4 liblerc4 #MINVER#
* Build-Depends-Package: liblerc-dev
 _Z12getBestLevelPKhji@Base 4.0.0
 _Z12getBestLevelPKhmi@Base 4.0.0
 _Z13ADD32_BIT_FLTRKjS0_@Base 4.0.0
 _Z13ADD64_BIT_DBLRKmS0_@Base 4.0.0
 _Z13ADD64_BIT_DBLRKyS0_@Base 4.0.0
 _Z13SUB32_BIT_FLTRKjS0_@Base 4.0.0
 _Z13SUB64_BIT_DBLRKmS0_@Base 4.0.0
 _Z13SUB64_BIT_DBLRKyS0_@Base 4.0.0
 _Z13getBestLevel2PKhji@Base 4.0.0
 _Z13getBestLevel2PKhmi@Base 4.0.0
 _Z14decodePackBitsPKhjjPPh@Base 4.0.0
 _Z14decodePackBitsPKhmmPPh@Base 4.0.0
 _Z14encodePackBitsPKhjPPh@Base 4.0.0
 _Z14encodePackBitsPKhmPPh@Base 4.0.0
 _Z14moveBits2Frontj@Base 4.0.0
 _Z15getPackBitsSizePKhjPl@Base 4.0.0
 _Z15getPackBitsSizePKhmPl@Base 4.0.0
 _Z15restoreSequencePhjib@Base 4.0.0
 _Z15restoreSequencePhmib@Base 4.0.0
 _Z16restoreByteOrderRSt6vectorISt4pairIiPcESaIS2_EEjjN6LercNS13PredictorTypeENS6_8UnitTypeEPPh@Base 4.0.0
 _Z16restoreByteOrderRSt6vectorISt4pairIiPcESaIS2_EEmmN6LercNS13PredictorTypeENS6_8UnitTypeEPPh@Base 4.0.0
 _Z17restoreCrossBytesRSt6vectorISt4pairIiPcESaIS2_EEjjjN6LercNS13PredictorTypeENS6_8UnitTypeEPPh@Base 4.0.0
 _Z17restoreCrossBytesRSt6vectorISt4pairIiPcESaIS2_EEmmmN6LercNS13PredictorTypeENS6_8UnitTypeEPPh@Base 4.0.0
 _Z18setDerivativeFloatPjjii@Base 4.0.0
 _Z18setDerivativeFloatPjmii@Base 4.0.0
 _Z19ComputeHuffmanCodesPKhjRiRSt6vectorISt4pairItjESaIS4_EE@Base 4.0.0
 _Z19ComputeHuffmanCodesPKhmRiRSt6vectorISt4pairItjESaIS4_EE@Base 4.0.0
 _Z19setDerivativeDoublePmmii@Base 4.0.0
 _Z19setDerivativeDoublePyjii@Base 4.0.0
 _Z19undo_moveBits2Frontj@Base 4.0.0
 _Z22ComputeHistoForHuffmanPKhjRSt6vectorIiSaIiEE@Base 4.0.0
 _Z22ComputeHistoForHuffmanPKhmRSt6vectorIiSaIiEE@Base 4.0.0
 _Z22restoreCrossBytesFloatiPjjj@Base 4.0.0
 _Z22restoreCrossBytesFloatiPjmm@Base 4.0.0
 _Z22setRowsDerivativeFloatPjjjii@Base 4.0.0
 _Z22setRowsDerivativeFloatPjmmii@Base 4.0.0
 _Z23restoreCrossBytesDoubleiPmmm@Base 4.0.0
 _Z23restoreCrossBytesDoubleiPyjj@Base 4.0.0
 _Z23setCrossDerivativeFloatPjjjii@Base 4.0.0
 _Z23setCrossDerivativeFloatPjmmii@Base 4.0.0
 _Z23setRowsDerivativeDoublePmmmii@Base 4.0.0
 _Z23setRowsDerivativeDoublePyjjii@Base 4.0.0
 _Z24setCrossDerivativeDoublePmmmii@Base 4.0.0
 _Z24setCrossDerivativeDoublePyjjii@Base 4.0.0
 _Z25restoreBlockSequenceFloatiPjjj@Base 4.0.0
 _Z25restoreBlockSequenceFloatiPjmm@Base 4.0.0
 _Z26restoreBlockSequenceDoubleiPmmm@Base 4.0.0
 _Z26restoreBlockSequenceDoubleiPyjj@Base 4.0.0
 _Z7_assertb@Base 4.0.0
 _ZN6LercNS10BitStuffer21numTailBytesNotNeededEji@Base 3.0
 _ZN6LercNS10BitStuffer8readUIntEPPKhRji@Base 4.0.0
 _ZN6LercNS11BitStuffer223BitStuff_Before_Lerc2v3EPPhRKSt6vectorIjSaIjEEi@Base 3.0
 _ZN6LercNS11BitStuffer224ComputeNumBytesNeededLutERKSt6vectorISt4pairIjjESaIS3_EERb@Base 3.0
 _ZN6LercNS15fpl_Compression14extract_bufferEPKcjjPPc@Base 4.0.0
 _ZN6LercNS15fpl_Compression14extract_bufferEPKcmmPPc@Base 4.0.0
 _ZN6LercNS15fpl_Compression14getEntropySizeEPKhj@Base 4.0.0
 _ZN6LercNS15fpl_Compression14getEntropySizeEPKhm@Base 4.0.0
 _ZN6LercNS15fpl_Compression15compress_bufferEPKcjPPcb@Base 4.0.0
 _ZN6LercNS15fpl_Compression15compress_bufferEPKcmPPcb@Base 4.0.0
 _ZN6LercNS15fpl_EsriHuffman13DecodeHuffmanEPKhjRjPPh@Base 4.0.0
 _ZN6LercNS15fpl_EsriHuffman13DecodeHuffmanEPKhmRmPPh@Base 4.0.0
 _ZN6LercNS15fpl_EsriHuffman13EncodeHuffmanEPKcjPPhb@Base 4.0.0
 _ZN6LercNS15fpl_EsriHuffman13EncodeHuffmanEPKcmPPhb@Base 4.0.0
 _ZN6LercNS15fpl_EsriHuffman17getCompressedSizeEPKcj@Base 4.0.0
 _ZN6LercNS15fpl_EsriHuffman17getCompressedSizeEPKcm@Base 4.0.0
 _ZN6LercNS21LosslessFPCompression16DecodeHuffmanFltEPPKhRjPvbiii@Base 4.0.0
 _ZN6LercNS21LosslessFPCompression16DecodeHuffmanFltEPPKhRmPvbiii@Base 4.0.0
 _ZN6LercNS21LosslessFPCompression16EncodeHuffmanFltEPPh@Base 4.0.0
 _ZN6LercNS21LosslessFPCompression21DecodeHuffmanFltSliceEPPKhRjPvbii@Base 4.0.0
 _ZN6LercNS21LosslessFPCompression21DecodeHuffmanFltSliceEPPKhRmPvbii@Base 4.0.0
 _ZN6LercNS21LosslessFPCompression22ComputeHuffmanCodesFltEPKvbiii@Base 4.0.0
 _ZN6LercNS21LosslessFPCompression27ComputeHuffmanCodesFltSliceEPKvbii@Base 4.0.0
 _ZN6LercNS21LosslessFPCompression31selectInitialLinearOrCrossDeltaENS_8UnitTypeEPviiRiRbbPj@Base 4.0.0
 _ZN6LercNS21LosslessFPCompression31selectInitialLinearOrCrossDeltaENS_8UnitTypeEPviiRiRbbPm@Base 4.0.0
 _ZN6LercNS21LosslessFPCompressionD1Ev@Base 4.0.0
 _ZN6LercNS21LosslessFPCompressionD2Ev@Base 4.0.0
 _ZN6LercNS3RLE10decompressEPKhjPPhRj@Base 3.0
 _ZN6LercNS3RLE10decompressEPKhjPhj@Base 3.0
 _ZN6LercNS3RLE10writeCountEsPPhS2_@Base 3.0
 _ZN6LercNS3RLE9readCountEPPKh@Base 3.0
 _ZN6LercNS4Lerc11DecodeTemplIaEENS_7ErrCodeEPT_PKhjiiiiiPhS7_Pd@Base 4.0.0
 _ZN6LercNS4Lerc11DecodeTemplIdEENS_7ErrCodeEPT_PKhjiiiiiPhS7_Pd@Base 4.0.0
 _ZN6LercNS4Lerc11DecodeTemplIfEENS_7ErrCodeEPT_PKhjiiiiiPhS7_Pd@Base 4.0.0
 _ZN6LercNS4Lerc11DecodeTemplIhEENS_7ErrCodeEPT_PKhjiiiiiPhS7_Pd@Base 4.0.0
 _ZN6LercNS4Lerc11DecodeTemplIiEENS_7ErrCodeEPT_PKhjiiiiiPhS7_Pd@Base 4.0.0
 _ZN6LercNS4Lerc11DecodeTemplIjEENS_7ErrCodeEPT_PKhjiiiiiPhS7_Pd@Base 4.0.0
 _ZN6LercNS4Lerc11DecodeTemplIsEENS_7ErrCodeEPT_PKhjiiiiiPhS7_Pd@Base 4.0.0
 _ZN6LercNS4Lerc11DecodeTemplItEENS_7ErrCodeEPT_PKhjiiiiiPhS7_Pd@Base 4.0.0
 _ZN6LercNS4Lerc11GetLercInfoEPKhjRNS0_8LercInfoEPdS5_j@Base 4.0.0
 _ZN6LercNS4Lerc11GetLercInfoEPKhjRNS0_8LercInfoEPdS5_m@Base 4.0.0
 _ZN6LercNS4Lerc11MasksDifferEPKhS2_j@Base 3.0
 _ZN6LercNS4Lerc12FilterNoDataIaEENS_7ErrCodeERSt6vectorIT_SaIS4_EERS3_IhSaIhEEiiiRdbSB_RbSC_@Base 4.0.0
 _ZN6LercNS4Lerc12FilterNoDataIdEENS_7ErrCodeERSt6vectorIT_SaIS4_EERS3_IhSaIhEEiiiRdbSB_RbSC_@Base 4.0.0
 _ZN6LercNS4Lerc12FilterNoDataIfEENS_7ErrCodeERSt6vectorIT_SaIS4_EERS3_IhSaIhEEiiiRdbSB_RbSC_@Base 4.0.0
 _ZN6LercNS4Lerc12FilterNoDataIhEENS_7ErrCodeERSt6vectorIT_SaIS4_EERS3_IhSaIhEEiiiRdbSB_RbSC_@Base 4.0.0
 _ZN6LercNS4Lerc12FilterNoDataIiEENS_7ErrCodeERSt6vectorIT_SaIS4_EERS3_IhSaIhEEiiiRdbSB_RbSC_@Base 4.0.0
 _ZN6LercNS4Lerc12FilterNoDataIjEENS_7ErrCodeERSt6vectorIT_SaIS4_EERS3_IhSaIhEEiiiRdbSB_RbSC_@Base 4.0.0
 _ZN6LercNS4Lerc12FilterNoDataIsEENS_7ErrCodeERSt6vectorIT_SaIS4_EERS3_IhSaIhEEiiiRdbSB_RbSC_@Base 4.0.0
 _ZN6LercNS4Lerc12FilterNoDataItEENS_7ErrCodeERSt6vectorIT_SaIS4_EERS3_IhSaIhEEiiiRdbSB_RbSC_@Base 4.0.0
 _ZN6LercNS4Lerc14EncodeInternalIaEENS_7ErrCodeEPKT_iiiiiiPKhdRjPhjS8_S7_PKd@Base 4.0.0
 _ZN6LercNS4Lerc14EncodeInternalIdEENS_7ErrCodeEPKT_iiiiiiPKhdRjPhjS8_S7_PKd@Base 4.0.0
 _ZN6LercNS4Lerc14EncodeInternalIfEENS_7ErrCodeEPKT_iiiiiiPKhdRjPhjS8_S7_PKd@Base 4.0.0
 _ZN6LercNS4Lerc14EncodeInternalIhEENS_7ErrCodeEPKT_iiiiiiPKhdRjPhjS8_S7_PKd@Base 4.0.0
 _ZN6LercNS4Lerc14EncodeInternalIiEENS_7ErrCodeEPKT_iiiiiiPKhdRjPhjS8_S7_PKd@Base 4.0.0
 _ZN6LercNS4Lerc14EncodeInternalIjEENS_7ErrCodeEPKT_iiiiiiPKhdRjPhjS8_S7_PKd@Base 4.0.0
 _ZN6LercNS4Lerc14EncodeInternalIsEENS_7ErrCodeEPKT_iiiiiiPKhdRjPhjS8_S7_PKd@Base 4.0.0
 _ZN6LercNS4Lerc14EncodeInternalItEENS_7ErrCodeEPKT_iiiiiiPKhdRjPhjS8_S7_PKd@Base 4.0.0
 _ZN6LercNS4Lerc15ConvertToDoubleEPKvNS0_8DataTypeEjPd@Base 3.0
 _ZN6LercNS4Lerc17EncodeInternal_v5IaEENS_7ErrCodeEPKT_iiiiiiPKhdRjPhjS8_@Base 4.0.0
 _ZN6LercNS4Lerc17EncodeInternal_v5IdEENS_7ErrCodeEPKT_iiiiiiPKhdRjPhjS8_@Base 4.0.0
 _ZN6LercNS4Lerc17EncodeInternal_v5IfEENS_7ErrCodeEPKT_iiiiiiPKhdRjPhjS8_@Base 4.0.0
 _ZN6LercNS4Lerc17EncodeInternal_v5IhEENS_7ErrCodeEPKT_iiiiiiPKhdRjPhjS8_@Base 4.0.0
 _ZN6LercNS4Lerc17EncodeInternal_v5IiEENS_7ErrCodeEPKT_iiiiiiPKhdRjPhjS8_@Base 4.0.0
 _ZN6LercNS4Lerc17EncodeInternal_v5IjEENS_7ErrCodeEPKT_iiiiiiPKhdRjPhjS8_@Base 4.0.0
 _ZN6LercNS4Lerc17EncodeInternal_v5IsEENS_7ErrCodeEPKT_iiiiiiPKhdRjPhjS8_@Base 4.0.0
 _ZN6LercNS4Lerc17EncodeInternal_v5ItEENS_7ErrCodeEPKT_iiiiiiPKhdRjPhjS8_@Base 4.0.0
 _ZN6LercNS4Lerc18FilterNoDataAndNaNIaEENS_7ErrCodeERSt6vectorIT_SaIS4_EERS3_IhSaIhEEiiiRdbSB_RbSC_SC_@Base 4.0.0
 _ZN6LercNS4Lerc18FilterNoDataAndNaNIdEENS_7ErrCodeERSt6vectorIT_SaIS4_EERS3_IhSaIhEEiiiRdbSB_RbSC_SC_@Base 4.0.0
 _ZN6LercNS4Lerc18FilterNoDataAndNaNIfEENS_7ErrCodeERSt6vectorIT_SaIS4_EERS3_IhSaIhEEiiiRdbSB_RbSC_SC_@Base 4.0.0
 _ZN6LercNS4Lerc18FilterNoDataAndNaNIhEENS_7ErrCodeERSt6vectorIT_SaIS4_EERS3_IhSaIhEEiiiRdbSB_RbSC_SC_@Base 4.0.0
 _ZN6LercNS4Lerc18FilterNoDataAndNaNIiEENS_7ErrCodeERSt6vectorIT_SaIS4_EERS3_IhSaIhEEiiiRdbSB_RbSC_SC_@Base 4.0.0
 _ZN6LercNS4Lerc18FilterNoDataAndNaNIjEENS_7ErrCodeERSt6vectorIT_SaIS4_EERS3_IhSaIhEEiiiRdbSB_RbSC_SC_@Base 4.0.0
 _ZN6LercNS4Lerc18FilterNoDataAndNaNIsEENS_7ErrCodeERSt6vectorIT_SaIS4_EERS3_IhSaIhEEiiiRdbSB_RbSC_SC_@Base 4.0.0
 _ZN6LercNS4Lerc18FilterNoDataAndNaNItEENS_7ErrCodeERSt6vectorIT_SaIS4_EERS3_IhSaIhEEiiiRdbSB_RbSC_SC_@Base 4.0.0
 _ZN6LercNS4Lerc21ComputeCompressedSizeEPKviNS0_8DataTypeEiiiiiPKhdRjS5_PKd@Base 4.0.0
 _ZN6LercNS4Lerc26FindNewNoDataBelowValidMinIaEEbddbdRT_@Base 4.0.0
 _ZN6LercNS4Lerc26FindNewNoDataBelowValidMinIdEEbddbdRT_@Base 4.0.0
 _ZN6LercNS4Lerc26FindNewNoDataBelowValidMinIfEEbddbdRT_@Base 4.0.0
 _ZN6LercNS4Lerc26FindNewNoDataBelowValidMinIhEEbddbdRT_@Base 4.0.0
 _ZN6LercNS4Lerc26FindNewNoDataBelowValidMinIiEEbddbdRT_@Base 4.0.0
 _ZN6LercNS4Lerc26FindNewNoDataBelowValidMinIjEEbddbdRT_@Base 4.0.0
 _ZN6LercNS4Lerc26FindNewNoDataBelowValidMinIsEEbddbdRT_@Base 4.0.0
 _ZN6LercNS4Lerc26FindNewNoDataBelowValidMinItEEbddbdRT_@Base 4.0.0
 _ZN6LercNS4Lerc6DecodeEPKhjiPhiiiiNS0_8DataTypeEPvS3_Pd@Base 4.0.0
 _ZN6LercNS4Lerc6EncodeEPKviNS0_8DataTypeEiiiiiPKhdPhjRjS5_PKd@Base 4.0.0
 _ZN6LercNS4Lerc6ResizeIaEEbRSt6vectorIT_SaIS3_EEj@Base 4.0.0
 _ZN6LercNS4Lerc6ResizeIaEEbRSt6vectorIT_SaIS3_EEm@Base 4.0.0
 _ZN6LercNS4Lerc6ResizeIdEEbRSt6vectorIT_SaIS3_EEj@Base 4.0.0
 _ZN6LercNS4Lerc6ResizeIdEEbRSt6vectorIT_SaIS3_EEm@Base 4.0.0
 _ZN6LercNS4Lerc6ResizeIfEEbRSt6vectorIT_SaIS3_EEj@Base 4.0.0
 _ZN6LercNS4Lerc6ResizeIfEEbRSt6vectorIT_SaIS3_EEm@Base 4.0.0
 _ZN6LercNS4Lerc6ResizeIiEEbRSt6vectorIT_SaIS3_EEj@Base 4.0.0
 _ZN6LercNS4Lerc6ResizeIiEEbRSt6vectorIT_SaIS3_EEm@Base 4.0.0
 _ZN6LercNS4Lerc6ResizeIjEEbRSt6vectorIT_SaIS3_EEj@Base 4.0.0
 _ZN6LercNS4Lerc6ResizeIjEEbRSt6vectorIT_SaIS3_EEm@Base 4.0.0
 _ZN6LercNS4Lerc6ResizeIsEEbRSt6vectorIT_SaIS3_EEj@Base 4.0.0
 _ZN6LercNS4Lerc6ResizeIsEEbRSt6vectorIT_SaIS3_EEm@Base 4.0.0
 _ZN6LercNS4Lerc6ResizeItEEbRSt6vectorIT_SaIS3_EEj@Base 4.0.0
 _ZN6LercNS4Lerc6ResizeItEEbRSt6vectorIT_SaIS3_EEm@Base 4.0.0
 _ZN6LercNS4Lerc7ConvertEPKhiiRNS_7BitMaskE@Base 3.0
 _ZN6LercNS4Lerc7ConvertERKNS_7BitMaskEPh@Base 3.0
 _ZN6LercNS4Lerc9GetRangesEPKhjiRKNS_5Lerc210HeaderInfoEPdS7_j@Base 4.0.0
 _ZN6LercNS4Lerc9GetRangesEPKhjiRKNS_5Lerc210HeaderInfoEPdS7_m@Base 4.0.0
 _ZN6LercNS5Lerc210ReadHeaderEPPKhRjRNS0_10HeaderInfoE@Base 3.0
 _ZN6LercNS5Lerc211SetIsAllIntEb@Base 4.0.0
 _ZN6LercNS5Lerc211WriteHeaderEPPhRKNS0_10HeaderInfoE@Base 3.0
 _ZN6LercNS5Lerc213GetHeaderInfoEPKhjRNS0_10HeaderInfoERb@Base 3.0
 _ZN6LercNS5Lerc214ReduceDataTypeIjEEiT_NS0_8DataTypeERS3_@Base 4.0.0
 _ZN6LercNS5Lerc214SortQuantArrayERKSt6vectorIjSaIjEERS1_ISt4pairIjjESaIS7_EE@Base 3.0
 _ZN6LercNS5Lerc215PruneCandidatesERSt6vectorIdSaIdEES4_RS1_IiSaIiEEd@Base 3.0
 _ZN6LercNS5Lerc215SetNoDataValuesEbdd@Base 4.0.0
 _ZN6LercNS5Lerc221SetNumBlobsMoreToComeEi@Base 4.0.0
 _ZN6LercNS5Lerc222SetEncoderToOldVersionEi@Base 3.0
 _ZN6LercNS5Lerc225ComputeChecksumFletcher32EPKhi@Base 3.0
 _ZN6LercNS5Lerc228ComputeNumBytesHeaderToWriteERKNS0_10HeaderInfoE@Base 3.0
 _ZN6LercNS5Lerc228ComputeNumBytesNeededToWriteIaEEjPKT_db@Base 3.0
 _ZN6LercNS5Lerc228ComputeNumBytesNeededToWriteIdEEjPKT_db@Base 3.0
 _ZN6LercNS5Lerc228ComputeNumBytesNeededToWriteIfEEjPKT_db@Base 3.0
 _ZN6LercNS5Lerc228ComputeNumBytesNeededToWriteIhEEjPKT_db@Base 3.0
 _ZN6LercNS5Lerc228ComputeNumBytesNeededToWriteIiEEjPKT_db@Base 3.0
 _ZN6LercNS5Lerc228ComputeNumBytesNeededToWriteIjEEjPKT_db@Base 3.0
 _ZN6LercNS5Lerc228ComputeNumBytesNeededToWriteIsEEjPKT_db@Base 3.0
 _ZN6LercNS5Lerc228ComputeNumBytesNeededToWriteItEEjPKT_db@Base 3.0
 _ZN6LercNS5Lerc23SetEiiiPKh@Base 3.0
 _ZN6LercNS5Lerc24InitEv@Base 3.0
 _ZN6LercNS5Lerc26DecodeIaEEbPPKhRjPT_Ph@Base 3.0
 _ZN6LercNS5Lerc26DecodeIdEEbPPKhRjPT_Ph@Base 3.0
 _ZN6LercNS5Lerc26DecodeIfEEbPPKhRjPT_Ph@Base 3.0
 _ZN6LercNS5Lerc26DecodeIhEEbPPKhRjPT_Ph@Base 3.0
 _ZN6LercNS5Lerc26DecodeIiEEbPPKhRjPT_Ph@Base 3.0
 _ZN6LercNS5Lerc26DecodeIjEEbPPKhRjPT_Ph@Base 3.0
 _ZN6LercNS5Lerc26DecodeIsEEbPPKhRjPT_Ph@Base 3.0
 _ZN6LercNS5Lerc26DecodeItEEbPPKhRjPT_Ph@Base 3.0
 _ZN6LercNS5Lerc26EncodeIaEEbPKT_PPh@Base 3.0
 _ZN6LercNS5Lerc26EncodeIdEEbPKT_PPh@Base 3.0
 _ZN6LercNS5Lerc26EncodeIfEEbPKT_PPh@Base 3.0
 _ZN6LercNS5Lerc26EncodeIhEEbPKT_PPh@Base 3.0
 _ZN6LercNS5Lerc26EncodeIiEEbPKT_PPh@Base 3.0
 _ZN6LercNS5Lerc26EncodeIjEEbPKT_PPh@Base 3.0
 _ZN6LercNS5Lerc26EncodeIsEEbPKT_PPh@Base 3.0
 _ZN6LercNS5Lerc26EncodeItEEbPKT_PPh@Base 3.0
 _ZN6LercNS5Lerc28ReadMaskEPPKhRj@Base 3.0
 _ZN6LercNS5Lerc29GetRangesEPKhjPdS3_@Base 4.0.0
 _ZN6LercNS5Lerc29GetRangesEPKhmPdS3_@Base 4.0.0
 _ZN6LercNS5Lerc2C1EiiiPKh@Base 3.0
 _ZN6LercNS5Lerc2C1Ev@Base 3.0
 _ZN6LercNS5Lerc2C2EiiiPKh@Base 3.0
 _ZN6LercNS5Lerc2C2Ev@Base 3.0
 _ZN6LercNS7BitMask5ClearEv@Base 3.0
 _ZN6LercNS7BitMask7SetSizeEii@Base 3.0
 _ZN6LercNS7BitMaskC1ERKS0_@Base 3.0
 _ZN6LercNS7BitMaskC2ERKS0_@Base 3.0
 _ZN6LercNS7BitMaskaSERKS0_@Base 3.0
 _ZN6LercNS7Huffman12ComputeCodesERKSt6vectorIiSaIiEE@Base 3.0
 _ZN6LercNS7Huffman13ReadCodeTableEPPKhRji@Base 3.0
 _ZN6LercNS7Huffman15BitUnStuffCodesEPPKhRjii@Base 3.0
 _ZN6LercNS7Huffman18BuildTreeFromCodesERi@Base 3.0
 _ZN6LercNS7Huffman23ConvertCodesToCanonicalEv@Base 3.0
 _ZN6LercNS7Huffman5ClearEv@Base 3.0
 _ZN6LercNS7Huffman8SetCodesERKSt6vectorISt4pairItjESaIS3_EE@Base 3.0
 _ZN6LercNS7Huffman9ClearTreeEv@Base 3.0
 _ZN6LercNS9CntZImage11numBytesFltEf@Base 3.0
 _ZN6LercNS9CntZImage11readCntTileEPPKhiiii@Base 4.0.0
 _ZN6LercNS9CntZImage11resizeFill0Eii@Base 3.0
 _ZN6LercNS9CntZImage33computeNumBytesNeededToReadHeaderEb@Base 3.0
 _ZN6LercNS9CntZImage4readEPPKhdbb@Base 4.0.0
 _ZN6LercNS9CntZImage7readFltEPPKhRfi@Base 4.0.0
 _ZN6LercNS9CntZImage9readTilesEbdiifPKh@Base 4.0.0
 _ZN6LercNS9CntZImage9readZTileEPPKhiiiidf@Base 4.0.0
 _ZN6LercNS9CntZImageC1Ev@Base 3.0
 _ZN6LercNS9CntZImageC2Ev@Base 3.0
 _ZN6LercNS9Predictor11getIntDeltaENS_13PredictorTypeE@Base 4.0.0
 _ZN6LercNS9Predictor15getMaxByteDeltaENS_13PredictorTypeE@Base 4.0.0
 _ZN6LercNS9Predictor17fromDeltaAndCrossEib@Base 4.0.0
 _ZN6LercNS9Predictor7getCodeENS_13PredictorTypeE@Base 4.0.0
 _ZN6LercNS9Predictor7getTypeEc@Base 4.0.0
 _ZN6LercNS9UnitTypes13setDerivativeENS_8UnitTypeEPvjii@Base 4.0.0
 _ZN6LercNS9UnitTypes13setDerivativeENS_8UnitTypeEPvmii@Base 4.0.0
 _ZN6LercNS9UnitTypes16doFloatTransformEPjj@Base 4.0.0
 _ZN6LercNS9UnitTypes16doFloatTransformEPjm@Base 4.0.0
 _ZN6LercNS9UnitTypes17restoreCrossBytesEiPvjjNS_8UnitTypeE@Base 4.0.0
 _ZN6LercNS9UnitTypes17restoreCrossBytesEiPvmmNS_8UnitTypeE@Base 4.0.0
 _ZN6LercNS9UnitTypes17setRowsDerivativeENS_8UnitTypeEPvjjii@Base 4.0.0
 _ZN6LercNS9UnitTypes17setRowsDerivativeENS_8UnitTypeEPvmmii@Base 4.0.0
 _ZN6LercNS9UnitTypes18setBlockDerivativeENS_8UnitTypeEPvjjii@Base 4.0.0
 _ZN6LercNS9UnitTypes18setBlockDerivativeENS_8UnitTypeEPvmmii@Base 4.0.0
 _ZN6LercNS9UnitTypes18setCrossDerivativeENS_8UnitTypeEPvjjii@Base 4.0.0
 _ZN6LercNS9UnitTypes18setCrossDerivativeENS_8UnitTypeEPvmmii@Base 4.0.0
 _ZN6LercNS9UnitTypes18undoFloatTransformEPjj@Base 4.0.0
 _ZN6LercNS9UnitTypes18undoFloatTransformEPjm@Base 4.0.0
 _ZN6LercNS9UnitTypes20restoreBlockSequenceEiPvjjNS_8UnitTypeE@Base 4.0.0
 _ZN6LercNS9UnitTypes20restoreBlockSequenceEiPvmmNS_8UnitTypeE@Base 4.0.0
 _ZN6LercNS9UnitTypes4sizeENS_8UnitTypeE@Base 4.0.0
 _ZN6LercNS9UnitTypes4typeEib@Base 4.0.0
 _ZN6LercNS9UnitTypes8unitCodeENS_8UnitTypeE@Base 4.0.0
 _ZNK6LercNS10BitStuffer4readEPPKhRSt6vectorIjSaIjEE@Base 4.0.0
 _ZNK6LercNS11BitStuffer210BitUnStuffEPPKhRjRSt6vectorIjSaIjEEji@Base 3.0
 _ZNK6LercNS11BitStuffer212EncodeSimpleEPPhRKSt6vectorIjSaIjEEi@Base 3.0
 _ZNK6LercNS11BitStuffer225BitUnStuff_Before_Lerc2v3EPPKhRjRSt6vectorIjSaIjEEji@Base 4.0.0
 _ZNK6LercNS11BitStuffer225BitUnStuff_Before_Lerc2v3EPPKhRmRSt6vectorIjSaIjEEji@Base 4.0.0
 _ZNK6LercNS11BitStuffer26DecodeEPPKhRjRSt6vectorIjSaIjEEji@Base 3.0
 _ZNK6LercNS11BitStuffer28BitStuffEPPhRKSt6vectorIjSaIjEEi@Base 3.0
 _ZNK6LercNS11BitStuffer29EncodeLutEPPhRKSt6vectorISt4pairIjjESaIS5_EEi@Base 3.0
 _ZNK6LercNS21LosslessFPCompression16compressedLengthEv@Base 4.0.0
 _ZNK6LercNS3RLE18computeNumBytesRLEEPKhj@Base 3.0
 _ZNK6LercNS3RLE8compressEPKhjPPhRjb@Base 3.0
 _ZNK6LercNS5Lerc216DoChecksOnEncodeEPhS1_@Base 3.0
 _ZNK6LercNS5Lerc29WriteMaskEPPh@Base 3.0
 _ZNK6LercNS7BitMask11SetAllValidEv@Base 3.0
 _ZNK6LercNS7BitMask13SetAllInvalidEv@Base 3.0
 _ZNK6LercNS7BitMask14CountValidBitsEv@Base 3.0
 _ZNK6LercNS7Huffman13BitStuffCodesEPPhii@Base 3.0
 _ZNK6LercNS7Huffman14WriteCodeTableEPPhi@Base 3.0
 _ZNK6LercNS7Huffman21ComputeCompressedSizeERKSt6vectorIiSaIiEERiRd@Base 3.0
 _ZNK6LercNS7Huffman24ComputeNumBytesCodeTableERi@Base 3.0
 _ZNK6LercNS7Huffman8GetRangeERiS1_S1_@Base 3.0
 _ZNSt6vectorI9TestBlockSaIS0_EE17_M_realloc_insertIJRKS0_EEEvN9__gnu_cxx17__normal_iteratorIPS0_S2_EEDpOT_@Base 4.0.0
 _ZNSt6vectorIPN6LercNS21LosslessFPCompression14outBlockBufferESaIS3_EE17_M_realloc_insertIJRKS3_EEEvN9__gnu_cxx17__normal_iteratorIPS3_S5_EEDpOT_@Base 4.0.0
 _ZNSt6vectorISt4pairIiPcESaIS2_EE17_M_realloc_insertIJS2_EEEvN9__gnu_cxx17__normal_iteratorIPS2_S4_EEDpOT_@Base 4.0.0
 _ZNSt6vectorISt4pairIjiESaIS1_EE17_M_realloc_insertIJS1_EEEvN9__gnu_cxx17__normal_iteratorIPS1_S3_EEDpOT_@Base 4.0.0
 _ZNSt6vectorISt4pairIjjESaIS1_EED1Ev@Base 4.0.0
 _ZNSt6vectorISt4pairIjjESaIS1_EED2Ev@Base 4.0.0
 _ZNSt6vectorISt4pairImiESaIS1_EE17_M_realloc_insertIJS1_EEEvN9__gnu_cxx17__normal_iteratorIPS1_S3_EEDpOT_@Base 4.0.0
 _ZNSt6vectorISt4pairItjESaIS1_EE6resizeEm@Base 4.0.0
 _ZNSt6vectorISt4pairItjESaIS1_EED1Ev@Base 4.0.0
 _ZNSt6vectorISt4pairItjESaIS1_EED2Ev@Base 4.0.0
 _ZNSt6vectorIaSaIaEE17_M_realloc_insertIJaEEEvN9__gnu_cxx17__normal_iteratorIPaS1_EEDpOT_@Base 4.0.0
 _ZNSt6vectorIaSaIaEED1Ev@Base 4.0.0
 _ZNSt6vectorIaSaIaEED2Ev@Base 4.0.0
 _ZNSt6vectorIdSaIdEE17_M_realloc_insertIJdEEEvN9__gnu_cxx17__normal_iteratorIPdS1_EEDpOT_@Base 4.0.0
 _ZNSt6vectorIdSaIdEED1Ev@Base 4.0.0
 _ZNSt6vectorIdSaIdEED2Ev@Base 4.0.0
 _ZNSt6vectorIfSaIfEE17_M_realloc_insertIJfEEEvN9__gnu_cxx17__normal_iteratorIPfS1_EEDpOT_@Base 4.0.0
 _ZNSt6vectorIfSaIfEED1Ev@Base 4.0.0
 _ZNSt6vectorIfSaIfEED2Ev@Base 4.0.0
 _ZNSt6vectorIhSaIhEE17_M_realloc_insertIJRKhEEEvN9__gnu_cxx17__normal_iteratorIPhS1_EEDpOT_@Base 4.0.0
 _ZNSt6vectorIhSaIhEE17_M_realloc_insertIJhEEEvN9__gnu_cxx17__normal_iteratorIPhS1_EEDpOT_@Base 4.0.0
 _ZNSt6vectorIhSaIhEED1Ev@Base 4.0.0
 _ZNSt6vectorIhSaIhEED2Ev@Base 4.0.0
 _ZNSt6vectorIiSaIiEED1Ev@Base 4.0.0
 _ZNSt6vectorIiSaIiEED2Ev@Base 4.0.0
 _ZNSt6vectorIjSaIjEE14_M_insert_rvalEN9__gnu_cxx17__normal_iteratorIPKjS1_EEOj@Base 4.0.0
 _ZNSt6vectorIjSaIjEE17_M_realloc_insertIJjEEEvN9__gnu_cxx17__normal_iteratorIPjS1_EEDpOT_@Base 4.0.0
 _ZNSt6vectorIjSaIjEED1Ev@Base 4.0.0
 _ZNSt6vectorIjSaIjEED2Ev@Base 4.0.0
 _ZNSt6vectorIsSaIsEE17_M_realloc_insertIJsEEEvN9__gnu_cxx17__normal_iteratorIPsS1_EEDpOT_@Base 4.0.0
 _ZNSt6vectorIsSaIsEED1Ev@Base 4.0.0
 _ZNSt6vectorIsSaIsEED2Ev@Base 4.0.0
 _ZNSt6vectorItSaItEE17_M_realloc_insertIJtEEEvN9__gnu_cxx17__normal_iteratorIPtS1_EEDpOT_@Base 4.0.0
 _ZNSt6vectorItSaItEED1Ev@Base 4.0.0
 _ZNSt6vectorItSaItEED2Ev@Base 4.0.0
 _ZSt16__introsort_loopIN9__gnu_cxx17__normal_iteratorIPaSt6vectorIaSaIaEEEEiNS0_5__ops15_Iter_comp_iterISt7greaterIdEEEEvT_SC_T0_T1_@Base 4.0.0
 _ZSt16__introsort_loopIN9__gnu_cxx17__normal_iteratorIPaSt6vectorIaSaIaEEEElNS0_5__ops15_Iter_comp_iterISt7greaterIdEEEEvT_SC_T0_T1_@Base 4.0.0
 _ZSt16__introsort_loopIN9__gnu_cxx17__normal_iteratorIPdSt6vectorIdSaIdEEEEiNS0_5__ops15_Iter_comp_iterISt7greaterIdEEEEvT_SC_T0_T1_@Base 4.0.0
 _ZSt16__introsort_loopIN9__gnu_cxx17__normal_iteratorIPdSt6vectorIdSaIdEEEElNS0_5__ops15_Iter_comp_iterISt7greaterIdEEEEvT_SC_T0_T1_@Base 4.0.0
 _ZSt16__introsort_loopIN9__gnu_cxx17__normal_iteratorIPfSt6vectorIfSaIfEEEEiNS0_5__ops15_Iter_comp_iterISt7greaterIdEEEEvT_SC_T0_T1_@Base 4.0.0
 _ZSt16__introsort_loopIN9__gnu_cxx17__normal_iteratorIPfSt6vectorIfSaIfEEEElNS0_5__ops15_Iter_comp_iterISt7greaterIdEEEEvT_SC_T0_T1_@Base 4.0.0
 _ZSt16__introsort_loopIN9__gnu_cxx17__normal_iteratorIPhSt6vectorIhSaIhEEEEiNS0_5__ops15_Iter_comp_iterISt7greaterIdEEEEvT_SC_T0_T1_@Base 4.0.0
 _ZSt16__introsort_loopIN9__gnu_cxx17__normal_iteratorIPhSt6vectorIhSaIhEEEElNS0_5__ops15_Iter_comp_iterISt7greaterIdEEEEvT_SC_T0_T1_@Base 4.0.0
 _ZSt16__introsort_loopIN9__gnu_cxx17__normal_iteratorIPiSt6vectorIiSaIiEEEEiNS0_5__ops15_Iter_comp_iterISt7greaterIdEEEEvT_SC_T0_T1_@Base 4.0.0
 _ZSt16__introsort_loopIN9__gnu_cxx17__normal_iteratorIPiSt6vectorIiSaIiEEEElNS0_5__ops15_Iter_comp_iterISt7greaterIdEEEEvT_SC_T0_T1_@Base 4.0.0
 _ZSt16__introsort_loopIN9__gnu_cxx17__normal_iteratorIPjSt6vectorIjSaIjEEEEiNS0_5__ops15_Iter_comp_iterISt7greaterIdEEEEvT_SC_T0_T1_@Base 4.0.0
 _ZSt16__introsort_loopIN9__gnu_cxx17__normal_iteratorIPjSt6vectorIjSaIjEEEElNS0_5__ops15_Iter_comp_iterISt7greaterIdEEEEvT_SC_T0_T1_@Base 4.0.0
 _ZSt16__introsort_loopIN9__gnu_cxx17__normal_iteratorIPsSt6vectorIsSaIsEEEEiNS0_5__ops15_Iter_comp_iterISt7greaterIdEEEEvT_SC_T0_T1_@Base 4.0.0
 _ZSt16__introsort_loopIN9__gnu_cxx17__normal_iteratorIPsSt6vectorIsSaIsEEEElNS0_5__ops15_Iter_comp_iterISt7greaterIdEEEEvT_SC_T0_T1_@Base 4.0.0
 _ZSt16__introsort_loopIN9__gnu_cxx17__normal_iteratorIPtSt6vectorItSaItEEEEiNS0_5__ops15_Iter_comp_iterISt7greaterIdEEEEvT_SC_T0_T1_@Base 4.0.0
 _ZSt16__introsort_loopIN9__gnu_cxx17__normal_iteratorIPtSt6vectorItSaItEEEElNS0_5__ops15_Iter_comp_iterISt7greaterIdEEEEvT_SC_T0_T1_@Base 4.0.0
 _ZTIN6LercNS5ImageE@Base 3.0
 _ZTIN6LercNS6TImageINS_4CntZEEE@Base 3.0
 _ZTSN6LercNS10BitStufferE@Base 3.0
 _ZTSN6LercNS11BitStuffer2E@Base 3.0
 _ZTSN6LercNS3RLEE@Base 3.0
 _ZTSN6LercNS5ImageE@Base 3.0
 _ZTSN6LercNS5Lerc2E@Base 3.0
 _ZTSN6LercNS6TImageINS_4CntZEEE@Base 3.0
 _ZTSN6LercNS7BitMaskE@Base 3.0
 _ZTSN6LercNS9CntZImageE@Base 3.0
 lerc_computeCompressedSize@Base 3.0
 lerc_computeCompressedSizeForVersion@Base 3.0
 lerc_computeCompressedSize_4D@Base 4.0.0
 lerc_decode@Base 3.0
 lerc_decodeToDouble@Base 3.0
 lerc_decodeToDouble_4D@Base 4.0.0
 lerc_decode_4D@Base 4.0.0
 lerc_encode@Base 3.0
 lerc_encodeForVersion@Base 3.0
 lerc_encode_4D@Base 4.0.0
 lerc_getBlobInfo@Base 3.0
 lerc_getDataRanges@Base 4.0.0
