libopenmpt.so.0 libopenmpt0t64 #MINVER#
* Build-Depends-Package: libopenmpt-dev
 _ZN7openmpt10module_ext13get_interfaceERKNSt7__cxx1112basic_stringIcSt11char_traitsIcESaIcEEE@Base 0.2.7025~beta20.1
 _ZN7openmpt10module_extC1EPKSt4bytejRSoRKSt3mapINSt7__cxx1112basic_stringIcSt11char_traitsIcESaIcEEESB_St4lessISB_ESaISt4pairIKSB_SB_EEE@Base 0.5.10
 _ZN7openmpt10module_extC1EPKcjRSoRKSt3mapINSt7__cxx1112basic_stringIcSt11char_traitsIcESaIcEEESA_St4lessISA_ESaISt4pairIKSA_SA_EEE@Base 0.2.7025~beta20.1
 _ZN7openmpt10module_extC1EPKhjRSoRKSt3mapINSt7__cxx1112basic_stringIcSt11char_traitsIcESaIcEEESA_St4lessISA_ESaISt4pairIKSA_SA_EEE@Base 0.5.10
 _ZN7openmpt10module_extC1EPKvjRSoRKSt3mapINSt7__cxx1112basic_stringIcSt11char_traitsIcESaIcEEESA_St4lessISA_ESaISt4pairIKSA_SA_EEE@Base 0.2.7025~beta20.1
 _ZN7openmpt10module_extC1ERKS0_@Base 0.2.7025~beta20.1
 _ZN7openmpt10module_extC1ERKSt6vectorISt4byteSaIS2_EERSoRKSt3mapINSt7__cxx1112basic_stringIcSt11char_traitsIcESaIcEEESE_St4lessISE_ESaISt4pairIKSE_SE_EEE@Base 0.5.10
 _ZN7openmpt10module_extC1ERKSt6vectorIcSaIcEERSoRKSt3mapINSt7__cxx1112basic_stringIcSt11char_traitsIcES2_EESC_St4lessISC_ESaISt4pairIKSC_SC_EEE@Base 0.2.7025~beta20.1
 _ZN7openmpt10module_extC1ERKSt6vectorIhSaIhEERSoRKSt3mapINSt7__cxx1112basic_stringIcSt11char_traitsIcESaIcEEESD_St4lessISD_ESaISt4pairIKSD_SD_EEE@Base 0.5.10
 _ZN7openmpt10module_extC1ERSiRSoRKSt3mapINSt7__cxx1112basic_stringIcSt11char_traitsIcESaIcEEES9_St4lessIS9_ESaISt4pairIKS9_S9_EEE@Base 0.2.7025~beta20.1
 _ZN7openmpt10module_extC2EPKSt4bytejRSoRKSt3mapINSt7__cxx1112basic_stringIcSt11char_traitsIcESaIcEEESB_St4lessISB_ESaISt4pairIKSB_SB_EEE@Base 0.5.10
 _ZN7openmpt10module_extC2EPKcjRSoRKSt3mapINSt7__cxx1112basic_stringIcSt11char_traitsIcESaIcEEESA_St4lessISA_ESaISt4pairIKSA_SA_EEE@Base 0.2.7025~beta20.1
 _ZN7openmpt10module_extC2EPKhjRSoRKSt3mapINSt7__cxx1112basic_stringIcSt11char_traitsIcESaIcEEESA_St4lessISA_ESaISt4pairIKSA_SA_EEE@Base 0.5.10
 _ZN7openmpt10module_extC2EPKvjRSoRKSt3mapINSt7__cxx1112basic_stringIcSt11char_traitsIcESaIcEEESA_St4lessISA_ESaISt4pairIKSA_SA_EEE@Base 0.2.7025~beta20.1
 _ZN7openmpt10module_extC2ERKS0_@Base 0.2.7025~beta20.1
 _ZN7openmpt10module_extC2ERKSt6vectorISt4byteSaIS2_EERSoRKSt3mapINSt7__cxx1112basic_stringIcSt11char_traitsIcESaIcEEESE_St4lessISE_ESaISt4pairIKSE_SE_EEE@Base 0.5.10
 _ZN7openmpt10module_extC2ERKSt6vectorIcSaIcEERSoRKSt3mapINSt7__cxx1112basic_stringIcSt11char_traitsIcES2_EESC_St4lessISC_ESaISt4pairIKSC_SC_EEE@Base 0.2.7025~beta20.1
 _ZN7openmpt10module_extC2ERKSt6vectorIhSaIhEERSoRKSt3mapINSt7__cxx1112basic_stringIcSt11char_traitsIcESaIcEEESD_St4lessISD_ESaISt4pairIKSD_SD_EEE@Base 0.5.10
 _ZN7openmpt10module_extC2ERSiRSoRKSt3mapINSt7__cxx1112basic_stringIcSt11char_traitsIcESaIcEEES9_St4lessIS9_ESaISt4pairIKS9_S9_EEE@Base 0.2.7025~beta20.1
 _ZN7openmpt10module_extD0Ev@Base 0.2.7025~beta20.1
 _ZN7openmpt10module_extD1Ev@Base 0.2.7025~beta20.1
 _ZN7openmpt10module_extD2Ev@Base 0.2.7025~beta20.1
 _ZN7openmpt10module_extaSERKS0_@Base 0.2.7025~beta20.1
 _ZN7openmpt16get_core_versionEv@Base 0.2.7025~beta20.1
 _ZN7openmpt17probe_file_headerEyPKSt4bytej@Base 0.5.10
 _ZN7openmpt17probe_file_headerEyPKSt4bytejy@Base 0.5.10
 _ZN7openmpt17probe_file_headerEyPKhj@Base 0.3.0
 _ZN7openmpt17probe_file_headerEyPKhjy@Base 0.3.0
 _ZN7openmpt17probe_file_headerEyRSi@Base 0.3.0
 _ZN7openmpt19get_library_versionEv@Base 0.2.7025~beta20.1
 _ZN7openmpt22could_open_probabilityERSidRSo@Base 0.3.0
 _ZN7openmpt22could_open_propabilityERSidRSo@Base 0.2.7025~beta20.1
 _ZN7openmpt22is_extension_supportedERKNSt7__cxx1112basic_stringIcSt11char_traitsIcESaIcEEE@Base 0.2.7025~beta20.1
 _ZN7openmpt23is_extension_supported2ESt17basic_string_viewIcSt11char_traitsIcEE@Base 0.5.10
 _ZN7openmpt24get_supported_extensionsB5cxx11Ev@Base 0.2.7025~beta20.1
 _ZN7openmpt38probe_file_header_get_recommended_sizeEv@Base 0.3.0
 _ZN7openmpt6module12ctl_set_textESt17basic_string_viewIcSt11char_traitsIcEES4_@Base 0.5.10
 _ZN7openmpt6module14select_subsongEi@Base 0.2.7025~beta20.1
 _ZN7openmpt6module15ctl_set_booleanESt17basic_string_viewIcSt11char_traitsIcEEb@Base 0.5.10
 _ZN7openmpt6module15ctl_set_integerESt17basic_string_viewIcSt11char_traitsIcEEx@Base 0.5.10
 _ZN7openmpt6module16set_render_paramEii@Base 0.2.7025~beta20.1
 _ZN7openmpt6module16set_repeat_countEi@Base 0.2.7025~beta20.1
 _ZN7openmpt6module20set_position_secondsEd@Base 0.2.7025~beta20.1
 _ZN7openmpt6module21ctl_set_floatingpointESt17basic_string_viewIcSt11char_traitsIcEEd@Base 0.5.10
 _ZN7openmpt6module21read_interleaved_quadEijPf@Base 0.2.7025~beta20.1
 _ZN7openmpt6module21read_interleaved_quadEijPs@Base 0.2.7025~beta20.1
 _ZN7openmpt6module22set_position_order_rowEii@Base 0.2.7025~beta20.1
 _ZN7openmpt6module23read_interleaved_stereoEijPf@Base 0.2.7025~beta20.1
 _ZN7openmpt6module23read_interleaved_stereoEijPs@Base 0.2.7025~beta20.1
 _ZN7openmpt6module4readEijPf@Base 0.2.7025~beta20.1
 _ZN7openmpt6module4readEijPfS1_@Base 0.2.7025~beta20.1
 _ZN7openmpt6module4readEijPfS1_S1_S1_@Base 0.2.7025~beta20.1
 _ZN7openmpt6module4readEijPs@Base 0.2.7025~beta20.1
 _ZN7openmpt6module4readEijPsS1_@Base 0.2.7025~beta20.1
 _ZN7openmpt6module4readEijPsS1_S1_S1_@Base 0.2.7025~beta20.1
 _ZN7openmpt6module7ctl_setERKNSt7__cxx1112basic_stringIcSt11char_traitsIcESaIcEEES8_@Base 0.2.7025~beta20.1
 _ZN7openmpt6module8set_implEPNS_11module_implE@Base 0.2.7025~beta20.1
 _ZN7openmpt6moduleC1EPKSt4byteS3_RSoRKSt3mapINSt7__cxx1112basic_stringIcSt11char_traitsIcESaIcEEESB_St4lessISB_ESaISt4pairIKSB_SB_EEE@Base 0.5.10
 _ZN7openmpt6moduleC1EPKSt4bytejRSoRKSt3mapINSt7__cxx1112basic_stringIcSt11char_traitsIcESaIcEEESB_St4lessISB_ESaISt4pairIKSB_SB_EEE@Base 0.5.10
 _ZN7openmpt6moduleC1EPKcS2_RSoRKSt3mapINSt7__cxx1112basic_stringIcSt11char_traitsIcESaIcEEESA_St4lessISA_ESaISt4pairIKSA_SA_EEE@Base 0.2.7025~beta20.1
 _ZN7openmpt6moduleC1EPKcjRSoRKSt3mapINSt7__cxx1112basic_stringIcSt11char_traitsIcESaIcEEESA_St4lessISA_ESaISt4pairIKSA_SA_EEE@Base 0.2.7025~beta20.1
 _ZN7openmpt6moduleC1EPKhS2_RSoRKSt3mapINSt7__cxx1112basic_stringIcSt11char_traitsIcESaIcEEESA_St4lessISA_ESaISt4pairIKSA_SA_EEE@Base 0.2.7025~beta20.1
 _ZN7openmpt6moduleC1EPKhjRSoRKSt3mapINSt7__cxx1112basic_stringIcSt11char_traitsIcESaIcEEESA_St4lessISA_ESaISt4pairIKSA_SA_EEE@Base 0.2.7025~beta20.1
 _ZN7openmpt6moduleC1EPKvjRSoRKSt3mapINSt7__cxx1112basic_stringIcSt11char_traitsIcESaIcEEESA_St4lessISA_ESaISt4pairIKSA_SA_EEE@Base 0.2.7025~beta20.1
 _ZN7openmpt6moduleC1ERKS0_@Base 0.2.7025~beta20.1
 _ZN7openmpt6moduleC1ERKSt6vectorISt4byteSaIS2_EERSoRKSt3mapINSt7__cxx1112basic_stringIcSt11char_traitsIcESaIcEEESE_St4lessISE_ESaISt4pairIKSE_SE_EEE@Base 0.5.10
 _ZN7openmpt6moduleC1ERKSt6vectorIcSaIcEERSoRKSt3mapINSt7__cxx1112basic_stringIcSt11char_traitsIcES2_EESC_St4lessISC_ESaISt4pairIKSC_SC_EEE@Base 0.2.7025~beta20.1
 _ZN7openmpt6moduleC1ERKSt6vectorIhSaIhEERSoRKSt3mapINSt7__cxx1112basic_stringIcSt11char_traitsIcESaIcEEESD_St4lessISD_ESaISt4pairIKSD_SD_EEE@Base 0.2.7025~beta20.1
 _ZN7openmpt6moduleC1ERSiRSoRKSt3mapINSt7__cxx1112basic_stringIcSt11char_traitsIcESaIcEEES9_St4lessIS9_ESaISt4pairIKS9_S9_EEE@Base 0.2.7025~beta20.1
 _ZN7openmpt6moduleC1Ev@Base 0.2.7025~beta20.1
 _ZN7openmpt6moduleC2EPKSt4byteS3_RSoRKSt3mapINSt7__cxx1112basic_stringIcSt11char_traitsIcESaIcEEESB_St4lessISB_ESaISt4pairIKSB_SB_EEE@Base 0.5.10
 _ZN7openmpt6moduleC2EPKSt4bytejRSoRKSt3mapINSt7__cxx1112basic_stringIcSt11char_traitsIcESaIcEEESB_St4lessISB_ESaISt4pairIKSB_SB_EEE@Base 0.5.10
 _ZN7openmpt6moduleC2EPKcS2_RSoRKSt3mapINSt7__cxx1112basic_stringIcSt11char_traitsIcESaIcEEESA_St4lessISA_ESaISt4pairIKSA_SA_EEE@Base 0.2.7025~beta20.1
 _ZN7openmpt6moduleC2EPKcjRSoRKSt3mapINSt7__cxx1112basic_stringIcSt11char_traitsIcESaIcEEESA_St4lessISA_ESaISt4pairIKSA_SA_EEE@Base 0.2.7025~beta20.1
 _ZN7openmpt6moduleC2EPKhS2_RSoRKSt3mapINSt7__cxx1112basic_stringIcSt11char_traitsIcESaIcEEESA_St4lessISA_ESaISt4pairIKSA_SA_EEE@Base 0.2.7025~beta20.1
 _ZN7openmpt6moduleC2EPKhjRSoRKSt3mapINSt7__cxx1112basic_stringIcSt11char_traitsIcESaIcEEESA_St4lessISA_ESaISt4pairIKSA_SA_EEE@Base 0.2.7025~beta20.1
 _ZN7openmpt6moduleC2EPKvjRSoRKSt3mapINSt7__cxx1112basic_stringIcSt11char_traitsIcESaIcEEESA_St4lessISA_ESaISt4pairIKSA_SA_EEE@Base 0.2.7025~beta20.1
 _ZN7openmpt6moduleC2ERKS0_@Base 0.2.7025~beta20.1
 _ZN7openmpt6moduleC2ERKSt6vectorISt4byteSaIS2_EERSoRKSt3mapINSt7__cxx1112basic_stringIcSt11char_traitsIcESaIcEEESE_St4lessISE_ESaISt4pairIKSE_SE_EEE@Base 0.5.10
 _ZN7openmpt6moduleC2ERKSt6vectorIcSaIcEERSoRKSt3mapINSt7__cxx1112basic_stringIcSt11char_traitsIcES2_EESC_St4lessISC_ESaISt4pairIKSC_SC_EEE@Base 0.2.7025~beta20.1
 _ZN7openmpt6moduleC2ERKSt6vectorIhSaIhEERSoRKSt3mapINSt7__cxx1112basic_stringIcSt11char_traitsIcESaIcEEESD_St4lessISD_ESaISt4pairIKSD_SD_EEE@Base 0.2.7025~beta20.1
 _ZN7openmpt6moduleC2ERSiRSoRKSt3mapINSt7__cxx1112basic_stringIcSt11char_traitsIcESaIcEEES9_St4lessIS9_ESaISt4pairIKS9_S9_EEE@Base 0.2.7025~beta20.1
 _ZN7openmpt6moduleC2Ev@Base 0.2.7025~beta20.1
 _ZN7openmpt6moduleD0Ev@Base 0.2.7025~beta20.1
 _ZN7openmpt6moduleD1Ev@Base 0.2.7025~beta20.1
 _ZN7openmpt6moduleD2Ev@Base 0.2.7025~beta20.1
 _ZN7openmpt6moduleaSERKS0_@Base 0.2.7025~beta20.1
 _ZN7openmpt6string3getERKNSt7__cxx1112basic_stringIcSt11char_traitsIcESaIcEEE@Base 0.2.7025~beta20.1
 _ZN7openmpt9exceptionC1EOS0_@Base 0.3.0
 _ZN7openmpt9exceptionC1ERKNSt7__cxx1112basic_stringIcSt11char_traitsIcESaIcEEE@Base 0.2.7025~beta20.1
 _ZN7openmpt9exceptionC1ERKS0_@Base 0.3.0
 _ZN7openmpt9exceptionC2EOS0_@Base 0.3.0
 _ZN7openmpt9exceptionC2ERKNSt7__cxx1112basic_stringIcSt11char_traitsIcESaIcEEE@Base 0.2.7025~beta20.1
 _ZN7openmpt9exceptionC2ERKS0_@Base 0.3.0
 _ZN7openmpt9exceptionD0Ev@Base 0.2.7025~beta20.1
 _ZN7openmpt9exceptionD1Ev@Base 0.2.7025~beta20.1
 _ZN7openmpt9exceptionD2Ev@Base 0.2.7025~beta20.1
 _ZN7openmpt9exceptionaSEOS0_@Base 0.3.0
 _ZN7openmpt9exceptionaSERKS0_@Base 0.3.0
 _ZNK7openmpt6module12ctl_get_textB5cxx11ESt17basic_string_viewIcSt11char_traitsIcEE@Base 0.5.10
 _ZNK7openmpt6module12get_metadataERKNSt7__cxx1112basic_stringIcSt11char_traitsIcESaIcEEE@Base 0.2.7025~beta20.1
 _ZNK7openmpt6module14get_num_ordersEv@Base 0.2.7025~beta20.1
 _ZNK7openmpt6module15ctl_get_booleanESt17basic_string_viewIcSt11char_traitsIcEE@Base 0.5.10
 _ZNK7openmpt6module15ctl_get_integerESt17basic_string_viewIcSt11char_traitsIcEE@Base 0.5.10
 _ZNK7openmpt6module15get_current_rowEv@Base 0.2.7025~beta20.1
 _ZNK7openmpt6module15get_num_samplesEv@Base 0.2.7025~beta20.1
 _ZNK7openmpt6module15get_order_namesB5cxx11Ev@Base 0.2.7025~beta20.1
 _ZNK7openmpt6module16get_num_channelsEv@Base 0.2.7025~beta20.1
 _ZNK7openmpt6module16get_num_patternsEv@Base 0.2.7025~beta20.1
 _ZNK7openmpt6module16get_num_subsongsEv@Base 0.2.7025~beta20.1
 _ZNK7openmpt6module16get_render_paramEi@Base 0.2.7025~beta20.1
 _ZNK7openmpt6module16get_repeat_countEv@Base 0.2.7025~beta20.1
 _ZNK7openmpt6module16get_sample_namesB5cxx11Ev@Base 0.2.7025~beta20.1
 _ZNK7openmpt6module17get_channel_namesB5cxx11Ev@Base 0.2.7025~beta20.1
 _ZNK7openmpt6module17get_current_orderEv@Base 0.2.7025~beta20.1
 _ZNK7openmpt6module17get_current_speedEv@Base 0.2.7025~beta20.1
 _ZNK7openmpt6module17get_current_tempoEv@Base 0.2.7025~beta20.1
 _ZNK7openmpt6module17get_metadata_keysB5cxx11Ev@Base 0.2.7025~beta20.1
 _ZNK7openmpt6module17get_order_patternEi@Base 0.2.7025~beta20.1
 _ZNK7openmpt6module17get_pattern_namesB5cxx11Ev@Base 0.2.7025~beta20.1
 _ZNK7openmpt6module17get_subsong_namesB5cxx11Ev@Base 0.2.7025~beta20.1
 _ZNK7openmpt6module18get_current_tempo2Ev@Base 0.7.0
 _ZNK7openmpt6module19get_current_patternEv@Base 0.2.7025~beta20.1
 _ZNK7openmpt6module19get_num_instrumentsEv@Base 0.2.7025~beta20.1
 _ZNK7openmpt6module20get_duration_secondsEv@Base 0.2.7025~beta20.1
 _ZNK7openmpt6module20get_instrument_namesB5cxx11Ev@Base 0.2.7025~beta20.1
 _ZNK7openmpt6module20get_pattern_num_rowsEi@Base 0.2.7025~beta20.1
 _ZNK7openmpt6module20get_position_secondsEv@Base 0.2.7025~beta20.1
 _ZNK7openmpt6module20get_selected_subsongEv@Base 0.3.0
 _ZNK7openmpt6module21ctl_get_floatingpointESt17basic_string_viewIcSt11char_traitsIcEE@Base 0.5.10
 _ZNK7openmpt6module25get_current_estimated_bpmEv@Base 0.5.10
 _ZNK7openmpt6module26format_pattern_row_channelB5cxx11Eiiijb@Base 0.2.7025~beta20.1
 _ZNK7openmpt6module27get_current_channel_vu_leftEi@Base 0.2.7025~beta20.1
 _ZNK7openmpt6module27get_current_channel_vu_monoEi@Base 0.2.7025~beta20.1
 _ZNK7openmpt6module28get_current_channel_vu_rightEi@Base 0.2.7025~beta20.1
 _ZNK7openmpt6module28get_current_playing_channelsEv@Base 0.2.7025~beta20.1
 _ZNK7openmpt6module29highlight_pattern_row_channelB5cxx11Eiiijb@Base 0.2.7025~beta20.1
 _ZNK7openmpt6module31get_pattern_row_channel_commandEiiii@Base 0.2.7025~beta20.1
 _ZNK7openmpt6module32get_current_channel_vu_rear_leftEi@Base 0.2.7025~beta20.1
 _ZNK7openmpt6module33get_current_channel_vu_rear_rightEi@Base 0.2.7025~beta20.1
 _ZNK7openmpt6module34format_pattern_row_channel_commandB5cxx11Eiiii@Base 0.2.7025~beta20.1
 _ZNK7openmpt6module37highlight_pattern_row_channel_commandB5cxx11Eiiii@Base 0.2.7025~beta20.1
 _ZNK7openmpt6module7ctl_getERKNSt7__cxx1112basic_stringIcSt11char_traitsIcESaIcEEE@Base 0.2.7025~beta20.1
 _ZNK7openmpt6module8get_ctlsB5cxx11Ev@Base 0.2.7025~beta20.1
 _ZNK7openmpt9exception4whatEv@Base 0.2.7025~beta20.1
 _ZNKSt17basic_string_viewIcSt11char_traitsIcEE7compareES2_@Base 0.2.7025~beta20.1
 _ZNKSt18bad_variant_access4whatEv@Base 0.2.7025~beta20.1
 _ZNKSt5ctypeIcE8do_widenEc@Base 0.2.7025~beta20.1
 _ZNKSt7__cxx1112basic_stringIcSt11char_traitsIcESaIcEE6substrEjj@Base 0.2.7025~beta20.1
 _ZNSt12_Destroy_auxILb0EE9__destroyIPN7OpenMPT11ModSequenceEEEvT_S5_@Base 0.2.7025~beta20.1
 _ZNSt12_Vector_baseIPfSaIS0_EED1Ev@Base 0.2.7025~beta20.1
 _ZNSt12_Vector_baseIPfSaIS0_EED2Ev@Base 0.2.7025~beta20.1
 _ZNSt12_Vector_baseISt4byteSaIS0_EED1Ev@Base 0.2.7025~beta20.1
 _ZNSt12_Vector_baseISt4byteSaIS0_EED2Ev@Base 0.2.7025~beta20.1
 _ZNSt12_Vector_baseISt4pairIN7OpenMPT13EffectCommandEhESaIS3_EED1Ev@Base 0.2.7025~beta20.1
 _ZNSt12_Vector_baseISt4pairIN7OpenMPT13EffectCommandEhESaIS3_EED2Ev@Base 0.2.7025~beta20.1
 _ZNSt12_Vector_baseISt4pairIN7OpenMPT8LogLevelENSt7__cxx1112basic_stringIcSt11char_traitsIcESaIcEEEESaIS9_EED1Ev@Base 0.2.7025~beta20.1
 _ZNSt12_Vector_baseISt4pairIN7OpenMPT8LogLevelENSt7__cxx1112basic_stringIcSt11char_traitsIcESaIcEEEESaIS9_EED2Ev@Base 0.2.7025~beta20.1
 _ZNSt12_Vector_baseISt4pairIhhESaIS1_EED1Ev@Base 0.2.7025~beta20.1
 _ZNSt12_Vector_baseISt4pairIhhESaIS1_EED2Ev@Base 0.2.7025~beta20.1
 _ZNSt12_Vector_baseISt5arrayIfLj512EESaIS1_EED1Ev@Base 0.2.7025~beta20.1
 _ZNSt12_Vector_baseISt5arrayIfLj512EESaIS1_EED2Ev@Base 0.2.7025~beta20.1
 _ZNSt12_Vector_baseISt7complexIdESaIS1_EED1Ev@Base 0.2.7025~beta20.1
 _ZNSt12_Vector_baseISt7complexIdESaIS1_EED2Ev@Base 0.2.7025~beta20.1
 _ZNSt12_Vector_baseIaSaIaEED1Ev@Base 0.2.7025~beta20.1
 _ZNSt12_Vector_baseIaSaIaEED2Ev@Base 0.2.7025~beta20.1
 _ZNSt12_Vector_baseIdSaIdEED1Ev@Base 0.2.7025~beta20.1
 _ZNSt12_Vector_baseIdSaIdEED2Ev@Base 0.2.7025~beta20.1
 _ZNSt12_Vector_baseIfSaIfEED1Ev@Base 0.2.7025~beta20.1
 _ZNSt12_Vector_baseIfSaIfEED2Ev@Base 0.2.7025~beta20.1
 _ZNSt12_Vector_baseIhSaIhEED1Ev@Base 0.2.7025~beta20.1
 _ZNSt12_Vector_baseIhSaIhEED2Ev@Base 0.2.7025~beta20.1
 _ZNSt12_Vector_baseIjSaIjEED1Ev@Base 0.2.7025~beta20.1
 _ZNSt12_Vector_baseIjSaIjEED2Ev@Base 0.2.7025~beta20.1
 _ZNSt12_Vector_baseIsSaIsEED1Ev@Base 0.2.7025~beta20.1
 _ZNSt12_Vector_baseIsSaIsEED2Ev@Base 0.2.7025~beta20.1
 _ZNSt12_Vector_baseItSaItEED1Ev@Base 0.2.7025~beta20.1
 _ZNSt12_Vector_baseItSaItEED2Ev@Base 0.2.7025~beta20.1
 _ZNSt13_Bvector_baseISaIbEE13_M_deallocateEv@Base 0.2.7025~beta20.1
 _ZNSt16_Sp_counted_baseILN9__gnu_cxx12_Lock_policyE2EE10_M_releaseEv@Base 0.2.7025~beta20.1
 _ZNSt18bad_variant_accessD0Ev@Base 0.2.7025~beta20.1
 _ZNSt18bad_variant_accessD1Ev@Base 0.2.7025~beta20.1
 _ZNSt18bad_variant_accessD2Ev@Base 0.2.7025~beta20.1
 _ZNSt20discard_block_engineISt26subtract_with_carry_engineIyLj48ELj5ELj12EELj389ELj11EEclEv@Base 0.2.7025~beta20.1
 _ZNSt23mersenne_twister_engineIjLj32ELj624ELj397ELj31ELj2567483615ELj11ELj4294967295ELj7ELj2636928640ELj15ELj4022730752ELj18ELj1812433253EE11_M_gen_randEv@Base 0.2.7025~beta20.1
 _ZNSt23mersenne_twister_engineIjLj32ELj624ELj397ELj31ELj2567483615ELj11ELj4294967295ELj7ELj2636928640ELj15ELj4022730752ELj18ELj1812433253EE4seedISt8seed_seqEENSt9enable_ifIXsrSt6__and_IJSt6__not_ISt7is_sameINSt9remove_cvINSt16remove_referenceIT_E4typeEE4typeES0_EESt11is_unsignedINS9_11result_typeEES5_ISt14is_convertibleIS9_jEEEE5valueEvE4typeERS9_@Base 0.2.7025~beta20.1
 _ZNSt23mersenne_twister_engineIjLj32ELj624ELj397ELj31ELj2567483615ELj11ELj4294967295ELj7ELj2636928640ELj15ELj4022730752ELj18ELj1812433253EEclEv@Base 0.2.7025~beta20.1
 _ZNSt26subtract_with_carry_engineIyLj48ELj5ELj12EEclEv@Base 0.2.7025~beta20.1
 _ZNSt3mapINSt7__cxx1112basic_stringIcSt11char_traitsIcESaIcEEES5_St4lessIS5_ESaISt4pairIKS5_S5_EEEixERS9_@Base 0.2.7025~beta20.1
 _ZNSt3mapINSt7__cxx1112basic_stringIcSt11char_traitsIcESaIcEEESt6vectorIS5_SaIS5_EESt4lessIS5_ESaISt4pairIKS5_S8_EEEixEOS5_@Base 0.2.7025~beta20.1
 _ZNSt3mapISt4pairIhjEfSt4lessIS1_ESaIS0_IKS1_fEEEixEOS1_@Base 0.2.7025~beta20.1
 _ZNSt3mapIhfSt4lessIhESaISt4pairIKhfEEEixERS3_@Base 0.2.7025~beta20.1
 _ZNSt3mapIttSt4lessItESaISt4pairIKttEEEixERS3_@Base 0.2.7025~beta20.1
 _ZNSt4pairINSt7__cxx1112basic_stringIcSt11char_traitsIcESaIcEEES5_EC1IRS5_S8_EEOT_OT0_@Base 0.2.7025~beta20.1
 _ZNSt4pairINSt7__cxx1112basic_stringIcSt11char_traitsIcESaIcEEES5_EC2IRS5_S8_EEOT_OT0_@Base 0.2.7025~beta20.1
 _ZNSt6vectorINSt7__cxx1112basic_stringIDuSt11char_traitsIDuESaIDuEEESaIS5_EE17_M_realloc_insertIJRKS5_EEEvN9__gnu_cxx17__normal_iteratorIPS5_S7_EEDpOT_@Base 0.2.7025~beta20.1
 _ZNSt6vectorINSt7__cxx1112basic_stringIcSt11char_traitsIcESaIcEEESaIS5_EE7reserveEj@Base 0.2.7025~beta20.1
 _ZNSt6vectorIPfSaIS0_EE17_M_default_appendEj@Base 0.2.7025~beta20.1
 _ZNSt6vectorIS_IbSaIbEESaIS1_EE17_M_default_appendEj@Base 0.2.7025~beta20.1
 _ZNSt6vectorISt4byteSaIS0_EE17_M_default_appendEj@Base 0.2.7025~beta20.1
 _ZNSt6vectorISt4byteSaIS0_EE6resizeEj@Base 0.2.7025~beta20.1
 _ZNSt6vectorISt4pairIN7OpenMPT13EffectCommandEhESaIS3_EE6insertEN9__gnu_cxx17__normal_iteratorIPKS3_S5_EERS8_@Base 0.2.7025~beta20.1
 _ZNSt6vectorISt5arrayIfLj512EESaIS1_EE17_M_default_appendEj@Base 0.2.7025~beta20.1
 _ZNSt6vectorIaSaIaEE14_M_fill_assignEjRKa@Base 0.2.7025~beta20.1
 _ZNSt6vectorIaSaIaEED1Ev@Base 0.2.7025~beta20.1
 _ZNSt6vectorIaSaIaEED2Ev@Base 0.2.7025~beta20.1
 _ZNSt6vectorIbSaIbEE14_M_fill_insertESt13_Bit_iteratorjb@Base 0.2.7025~beta20.1
 _ZNSt6vectorIbSaIbEEC1ERKS1_@Base 0.2.7025~beta20.1
 _ZNSt6vectorIbSaIbEEC2ERKS1_@Base 0.2.7025~beta20.1
 _ZNSt6vectorIcSaIcEE17_M_default_appendEj@Base 0.2.7025~beta20.1
 _ZNSt6vectorIfSaIfEE14_M_fill_insertEN9__gnu_cxx17__normal_iteratorIPfS1_EEjRKf@Base 0.2.7025~beta20.1
 _ZNSt6vectorIfSaIfEE17_M_default_appendEj@Base 0.2.7025~beta20.1
 _ZNSt6vectorIfSaIfEE9push_backERKf@Base 0.2.7025~beta20.1
 _ZNSt6vectorIfSaIfEED1Ev@Base 0.2.7025~beta20.1
 _ZNSt6vectorIfSaIfEED2Ev@Base 0.2.7025~beta20.1
 _ZNSt6vectorIhSaIhEE14_M_fill_insertEN9__gnu_cxx17__normal_iteratorIPhS1_EEjRKh@Base 0.2.7025~beta20.1
 _ZNSt6vectorIhSaIhEE17_M_default_appendEj@Base 0.2.7025~beta20.1
 _ZNSt6vectorIhSaIhEE6resizeEjRKh@Base 0.2.7025~beta20.1
 _ZNSt6vectorIjSaIjEE14_M_fill_insertEN9__gnu_cxx17__normal_iteratorIPjS1_EEjRKj@Base 0.2.7025~beta20.1
 _ZNSt6vectorIsSaIsEE17_M_default_appendEj@Base 0.2.7025~beta20.1
 _ZNSt6vectorIsSaIsEED1Ev@Base 0.2.7025~beta20.1
 _ZNSt6vectorIsSaIsEED2Ev@Base 0.2.7025~beta20.1
 _ZNSt6vectorItSaItEE14_M_fill_insertEN9__gnu_cxx17__normal_iteratorIPtS1_EEjRKt@Base 0.2.7025~beta20.1
 _ZNSt6vectorItSaItEE17_M_default_appendEj@Base 0.2.7025~beta20.1
 _ZNSt7__cxx1112basic_stringIDuSt11char_traitsIDuESaIDuEE10_M_disposeEv@Base 0.2.7025~beta20.1
 _ZNSt7__cxx1112basic_stringIDuSt11char_traitsIDuESaIDuEE15_M_replace_coldEPDujPKDujj@Base 0.2.7025~beta20.1
 _ZNSt7__cxx1112basic_stringIDuSt11char_traitsIDuESaIDuEE6appendEPKDu@Base 0.2.7025~beta20.1
 _ZNSt7__cxx1112basic_stringIDuSt11char_traitsIDuESaIDuEE6appendEPKDuj@Base 0.2.7025~beta20.1
 _ZNSt7__cxx1112basic_stringIDuSt11char_traitsIDuESaIDuEE7replaceEjjPKDuj@Base 0.2.7025~beta20.1
 _ZNSt7__cxx1112basic_stringIDuSt11char_traitsIDuESaIDuEE9_M_mutateEjjPKDuj@Base 0.2.7025~beta20.1
 _ZNSt7__cxx1112basic_stringIDuSt11char_traitsIDuESaIDuEE9push_backEDu@Base 0.2.7025~beta20.1
 _ZNSt7__cxx1112basic_stringIDuSt11char_traitsIDuESaIDuEEC1EOS4_@Base 0.2.7025~beta20.1
 _ZNSt7__cxx1112basic_stringIDuSt11char_traitsIDuESaIDuEEC1ERKS4_@Base 0.2.7025~beta20.1
 _ZNSt7__cxx1112basic_stringIDuSt11char_traitsIDuESaIDuEEC1IS3_EEPKDuRKS3_@Base 0.2.7025~beta20.1
 _ZNSt7__cxx1112basic_stringIDuSt11char_traitsIDuESaIDuEEC2EOS4_@Base 0.2.7025~beta20.1
 _ZNSt7__cxx1112basic_stringIDuSt11char_traitsIDuESaIDuEEC2ERKS4_@Base 0.2.7025~beta20.1
 _ZNSt7__cxx1112basic_stringIDuSt11char_traitsIDuESaIDuEEC2IS3_EEPKDuRKS3_@Base 0.2.7025~beta20.1
 _ZNSt7__cxx1112basic_stringIcSt11char_traitsIcESaIcEE10_M_disposeEv@Base 0.2.7025~beta20.1
 _ZNSt7__cxx1112basic_stringIcSt11char_traitsIcESaIcEE12_M_constructEjc@Base 0.2.7025~beta20.1
 _ZNSt7__cxx1112basic_stringIcSt11char_traitsIcESaIcEE6appendEPKc@Base 0.2.7025~beta20.1
 _ZNSt7__cxx1112basic_stringIcSt11char_traitsIcESaIcEE6appendEPKcj@Base 0.2.7025~beta20.1
 _ZNSt7__cxx1112basic_stringIcSt11char_traitsIcESaIcEE6insertEjPKc@Base 0.2.7025~beta20.1
 _ZNSt7__cxx1112basic_stringIcSt11char_traitsIcESaIcEE6resizeEjc@Base 0.2.7025~beta20.1
 _ZNSt7__cxx1112basic_stringIcSt11char_traitsIcESaIcEE7replaceEjjPKcj@Base 0.2.7025~beta20.1
 _ZNSt7__cxx1112basic_stringIcSt11char_traitsIcESaIcEE7reserveEj@Base 0.2.7025~beta20.1
 _ZNSt7__cxx1112basic_stringIcSt11char_traitsIcESaIcEE9_M_assignERKS4_@Base 0.2.7025~beta20.1
 _ZNSt7__cxx1112basic_stringIcSt11char_traitsIcESaIcEE9_M_mutateEjjPKcj@Base 0.2.7025~beta20.1
 _ZNSt7__cxx1112basic_stringIcSt11char_traitsIcESaIcEE9push_backEc@Base 0.2.7025~beta20.1
 _ZNSt7__cxx1112basic_stringIcSt11char_traitsIcESaIcEEC1EOS4_@Base 0.2.7025~beta20.1
 _ZNSt7__cxx1112basic_stringIcSt11char_traitsIcESaIcEEC1EPKcjRKS3_@Base 0.2.7025~beta20.1
 _ZNSt7__cxx1112basic_stringIcSt11char_traitsIcESaIcEEC1ERKS4_@Base 0.2.7025~beta20.1
 _ZNSt7__cxx1112basic_stringIcSt11char_traitsIcESaIcEEC1IS3_EEPKcRKS3_@Base 0.2.7025~beta20.1
 _ZNSt7__cxx1112basic_stringIcSt11char_traitsIcESaIcEEC2EOS4_@Base 0.2.7025~beta20.1
 _ZNSt7__cxx1112basic_stringIcSt11char_traitsIcESaIcEEC2EPKcjRKS3_@Base 0.2.7025~beta20.1
 _ZNSt7__cxx1112basic_stringIcSt11char_traitsIcESaIcEEC2ERKS4_@Base 0.2.7025~beta20.1
 _ZNSt7__cxx1112basic_stringIcSt11char_traitsIcESaIcEEC2IS3_EEPKcRKS3_@Base 0.2.7025~beta20.1
 _ZNSt7__cxx1112basic_stringIwSt11char_traitsIwESaIwEE10_M_disposeEv@Base 0.2.7025~beta20.1
 _ZNSt7__cxx1112basic_stringIwSt11char_traitsIwESaIwEE7reserveEj@Base 0.2.7025~beta20.1
 _ZNSt7__cxx1112basic_stringIwSt11char_traitsIwESaIwEE9_M_mutateEjjPKwj@Base 0.2.7025~beta20.1
 _ZNSt7__cxx1112basic_stringIwSt11char_traitsIwESaIwEE9push_backEw@Base 0.2.7025~beta20.1
 _ZNSt7__cxx1115basic_stringbufIcSt11char_traitsIcESaIcEED0Ev@Base 0.2.7025~beta20.1
 _ZNSt7__cxx1115basic_stringbufIcSt11char_traitsIcESaIcEED1Ev@Base 0.2.7025~beta20.1
 _ZNSt7__cxx1115basic_stringbufIcSt11char_traitsIcESaIcEED2Ev@Base 0.2.7025~beta20.1
 _ZNSt8_Rb_treeINSt7__cxx1112basic_stringIDuSt11char_traitsIDuESaIDuEEES5_St9_IdentityIS5_ESt4lessIS5_ESaIS5_EE16_M_insert_uniqueIRKS5_EESt4pairISt17_Rb_tree_iteratorIS5_EbEOT_@Base 0.2.7025~beta20.1
 _ZNSt8_Rb_treeINSt7__cxx1112basic_stringIcSt11char_traitsIcESaIcEEESt4pairIKS5_S5_ESt10_Select1stIS8_ESt4lessIS5_ESaIS8_EE11equal_rangeERS7_@Base 0.2.7025~beta20.1
 _ZNSt8_Rb_treeINSt7__cxx1112basic_stringIcSt11char_traitsIcESaIcEEESt4pairIKS5_S5_ESt10_Select1stIS8_ESt4lessIS5_ESaIS8_EE24_M_get_insert_unique_posERS7_@Base 0.2.7025~beta20.1
 _ZNSt8_Rb_treeINSt7__cxx1112basic_stringIcSt11char_traitsIcESaIcEEESt4pairIKS5_S5_ESt10_Select1stIS8_ESt4lessIS5_ESaIS8_EE29_M_get_insert_hint_unique_posESt23_Rb_tree_const_iteratorIS8_ERS7_@Base 0.2.7025~beta20.1
 _ZNSt8_Rb_treeINSt7__cxx1112basic_stringIcSt11char_traitsIcESaIcEEESt4pairIKS5_St6vectorIS5_SaIS5_EEESt10_Select1stISB_ESt4lessIS5_ESaISB_EE24_M_get_insert_unique_posERS7_@Base 0.2.7025~beta20.1
 _ZNSt8_Rb_treeINSt7__cxx1112basic_stringIcSt11char_traitsIcESaIcEEESt4pairIKS5_St6vectorIS5_SaIS5_EEESt10_Select1stISB_ESt4lessIS5_ESaISB_EE29_M_get_insert_hint_unique_posESt23_Rb_tree_const_iteratorISB_ERS7_@Base 0.2.7025~beta20.1
 _ZNSt8_Rb_treeISt4pairIhjES0_IKS1_fESt10_Select1stIS3_ESt4lessIS1_ESaIS3_EE24_M_get_insert_unique_posERS2_@Base 0.2.7025~beta20.1
 _ZNSt8_Rb_treeISt4pairIhjES0_IKS1_fESt10_Select1stIS3_ESt4lessIS1_ESaIS3_EE29_M_get_insert_hint_unique_posESt23_Rb_tree_const_iteratorIS3_ERS2_@Base 0.2.7025~beta20.1
 _ZNSt8__detail13__to_chars_16IjEENSt9enable_ifIXsrSt5__or_IJS2_IJSt7is_sameINSt9remove_cvIT_E4typeEaES3_IS7_sES3_IS7_iES3_IS7_lES3_IS7_xEEES2_IJS3_IS7_hES3_IS7_tES3_IS7_jES3_IS7_mES3_IS7_yEEES3_IcS7_EEE5valueESt15to_chars_resultE4typeEPcSP_S5_@Base 0.2.7025~beta20.1
 _ZNSt8__detail18__to_chars_10_implIjEEvPcjT_@Base 0.2.7025~beta20.1
 _ZNSt8seed_seq8generateIPjEEvT_S2_@Base 0.2.7025~beta20.1
 _ZNSt8seed_seqC1IPKjEET_S3_@Base 0.2.7025~beta20.1
 _ZNSt8seed_seqC2IPKjEET_S3_@Base 0.2.7025~beta20.1
 _ZSt12__to_chars_iIhENSt9enable_ifIXsrSt5__or_IJS1_IJSt7is_sameINSt9remove_cvIT_E4typeEaES2_IS6_sES2_IS6_iES2_IS6_lES2_IS6_xEEES1_IJS2_IS6_hES2_IS6_tES2_IS6_jES2_IS6_mES2_IS6_yEEES2_IcS6_EEE5valueESt15to_chars_resultE4typeEPcSO_S4_i@Base 0.2.7025~beta20.1
 _ZSt12__to_chars_iIiENSt9enable_ifIXsrSt5__or_IJS1_IJSt7is_sameINSt9remove_cvIT_E4typeEaES2_IS6_sES2_IS6_iES2_IS6_lES2_IS6_xEEES1_IJS2_IS6_hES2_IS6_tES2_IS6_jES2_IS6_mES2_IS6_yEEES2_IcS6_EEE5valueESt15to_chars_resultE4typeEPcSO_S4_i@Base 0.2.7025~beta20.1
 _ZSt26__throw_bad_variant_accessPKc@Base 0.2.7025~beta20.1
 _ZSt26__throw_bad_variant_accessb@Base 0.2.7025~beta20.1
 _ZSt4findIN9__gnu_cxx17__normal_iteratorIPKNSt7__cxx1112basic_stringIDuSt11char_traitsIDuESaIDuEEESt6vectorIS7_SaIS7_EEEES7_ET_SE_SE_RKT0_@Base 0.2.7025~beta20.1
 _ZSteqIDuSt11char_traitsIDuESaIDuEEbRKNSt7__cxx1112basic_stringIT_T0_T1_EESA_@Base 0.2.7025~beta20.1
 _ZSteqIcSt11char_traitsIcESaIcEEbRKNSt7__cxx1112basic_stringIT_T0_T1_EEPKS5_@Base 0.2.7025~beta20.1
 _ZSteqIcSt11char_traitsIcESaIcEEbRKNSt7__cxx1112basic_stringIT_T0_T1_EESA_@Base 0.2.7025~beta20.1
 _ZStplIDuSt11char_traitsIDuESaIDuEENSt7__cxx1112basic_stringIT_T0_T1_EEOS8_S9_@Base 0.2.7025~beta20.1
 _ZStplIcSt11char_traitsIcESaIcEENSt7__cxx1112basic_stringIT_T0_T1_EEOS8_S9_@Base 0.2.7025~beta20.1
 _ZTIN7openmpt10module_extE@Base 0.2.7025~beta20.1
 _ZTIN7openmpt6moduleE@Base 0.2.7025~beta20.1
 _ZTIN7openmpt9exceptionE@Base 0.2.7025~beta20.1
 _ZTISt11_Mutex_baseILN9__gnu_cxx12_Lock_policyE2EE@Base 0.2.7025~beta20.1
 _ZTISt16_Sp_counted_baseILN9__gnu_cxx12_Lock_policyE2EE@Base 0.2.7025~beta20.1
 _ZTISt18bad_variant_access@Base 0.2.7025~beta20.1
 _ZTISt19_Sp_make_shared_tag@Base 0.2.7025~beta20.1
 _ZTSN7openmpt10module_extE@Base 0.2.7025~beta20.1
 _ZTSN7openmpt6moduleE@Base 0.2.7025~beta20.1
 _ZTSN7openmpt9exceptionE@Base 0.2.7025~beta20.1
 _ZTSSt11_Mutex_baseILN9__gnu_cxx12_Lock_policyE2EE@Base 0.2.7025~beta20.1
 _ZTSSt16_Sp_counted_baseILN9__gnu_cxx12_Lock_policyE2EE@Base 0.2.7025~beta20.1
 _ZTSSt18bad_variant_access@Base 0.2.7025~beta20.1
 _ZTSSt19_Sp_make_shared_tag@Base 0.2.7025~beta20.1
 _ZTVN7openmpt10module_extE@Base 0.2.7025~beta20.1
 _ZTVN7openmpt6moduleE@Base 0.2.7025~beta20.1
 _ZTVN7openmpt9exceptionE@Base 0.2.7025~beta20.1
 _ZTVSt18bad_variant_access@Base 0.6
 _ZZNSt19_Sp_make_shared_tag5_S_tiEvE5__tag@Base 0.2.7025~beta20.1
 openmpt_could_open_probability2@Base 0.3.0
 openmpt_could_open_probability@Base 0.3.0
 openmpt_could_open_propability@Base 0.2.7025~beta20.1
 openmpt_error_func_default@Base 0.3.0
 openmpt_error_func_errno@Base 0.3.0
 openmpt_error_func_errno_userdata@Base 0.3.0
 openmpt_error_func_ignore@Base 0.3.0
 openmpt_error_func_log@Base 0.3.0
 openmpt_error_func_store@Base 0.3.0
 openmpt_error_is_transient@Base 0.3.0
 openmpt_error_string@Base 0.3.0
 openmpt_free_string@Base 0.2.7025~beta20.1
 openmpt_get_core_version@Base 0.2.7025~beta20.1
 openmpt_get_library_version@Base 0.2.7025~beta20.1
 openmpt_get_string@Base 0.2.7025~beta20.1
 openmpt_get_supported_extensions@Base 0.2.7025~beta20.1
 openmpt_is_extension_supported@Base 0.2.7025~beta20.1
 openmpt_log_func_default@Base 0.2.7025~beta20.1
 openmpt_log_func_silent@Base 0.2.7025~beta20.1
 openmpt_module_create2@Base 0.3.0
 openmpt_module_create@Base 0.2.7025~beta20.1
 openmpt_module_create_from_memory2@Base 0.3.0
 openmpt_module_create_from_memory@Base 0.2.7025~beta20.1
 openmpt_module_ctl_get@Base 0.2.7025~beta20.1
 openmpt_module_ctl_get_boolean@Base 0.5.10
 openmpt_module_ctl_get_floatingpoint@Base 0.5.10
 openmpt_module_ctl_get_integer@Base 0.5.10
 openmpt_module_ctl_get_text@Base 0.5.10
 openmpt_module_ctl_set@Base 0.2.7025~beta20.1
 openmpt_module_ctl_set_boolean@Base 0.5.10
 openmpt_module_ctl_set_floatingpoint@Base 0.5.10
 openmpt_module_ctl_set_integer@Base 0.5.10
 openmpt_module_ctl_set_text@Base 0.5.10
 openmpt_module_destroy@Base 0.2.7025~beta20.1
 openmpt_module_error_clear@Base 0.3.0
 openmpt_module_error_get_last@Base 0.3.0
 openmpt_module_error_get_last_message@Base 0.3.0
 openmpt_module_error_set_last@Base 0.3.0
 openmpt_module_ext_create@Base 0.3.0
 openmpt_module_ext_create_from_memory@Base 0.3.0
 openmpt_module_ext_destroy@Base 0.3.0
 openmpt_module_ext_get_interface@Base 0.3.0
 openmpt_module_ext_get_module@Base 0.3.0
 openmpt_module_format_pattern_row_channel@Base 0.2.7025~beta20.1
 openmpt_module_format_pattern_row_channel_command@Base 0.2.7025~beta20.1
 openmpt_module_get_channel_name@Base 0.2.7025~beta20.1
 openmpt_module_get_ctls@Base 0.2.7025~beta20.1
 openmpt_module_get_current_channel_vu_left@Base 0.2.7025~beta20.1
 openmpt_module_get_current_channel_vu_mono@Base 0.2.7025~beta20.1
 openmpt_module_get_current_channel_vu_rear_left@Base 0.2.7025~beta20.1
 openmpt_module_get_current_channel_vu_rear_right@Base 0.2.7025~beta20.1
 openmpt_module_get_current_channel_vu_right@Base 0.2.7025~beta20.1
 openmpt_module_get_current_estimated_bpm@Base 0.5.10
 openmpt_module_get_current_order@Base 0.2.7025~beta20.1
 openmpt_module_get_current_pattern@Base 0.2.7025~beta20.1
 openmpt_module_get_current_playing_channels@Base 0.2.7025~beta20.1
 openmpt_module_get_current_row@Base 0.2.7025~beta20.1
 openmpt_module_get_current_speed@Base 0.2.7025~beta20.1
 openmpt_module_get_current_tempo2@Base 0.7.0
 openmpt_module_get_current_tempo@Base 0.2.7025~beta20.1
 openmpt_module_get_duration_seconds@Base 0.2.7025~beta20.1
 openmpt_module_get_instrument_name@Base 0.2.7025~beta20.1
 openmpt_module_get_metadata@Base 0.2.7025~beta20.1
 openmpt_module_get_metadata_keys@Base 0.2.7025~beta20.1
 openmpt_module_get_num_channels@Base 0.2.7025~beta20.1
 openmpt_module_get_num_instruments@Base 0.2.7025~beta20.1
 openmpt_module_get_num_orders@Base 0.2.7025~beta20.1
 openmpt_module_get_num_patterns@Base 0.2.7025~beta20.1
 openmpt_module_get_num_samples@Base 0.2.7025~beta20.1
 openmpt_module_get_num_subsongs@Base 0.2.7025~beta20.1
 openmpt_module_get_order_name@Base 0.2.7025~beta20.1
 openmpt_module_get_order_pattern@Base 0.2.7025~beta20.1
 openmpt_module_get_pattern_name@Base 0.2.7025~beta20.1
 openmpt_module_get_pattern_num_rows@Base 0.2.7025~beta20.1
 openmpt_module_get_pattern_row_channel_command@Base 0.2.7025~beta20.1
 openmpt_module_get_position_seconds@Base 0.2.7025~beta20.1
 openmpt_module_get_render_param@Base 0.2.7025~beta20.1
 openmpt_module_get_repeat_count@Base 0.2.7025~beta20.1
 openmpt_module_get_sample_name@Base 0.2.7025~beta20.1
 openmpt_module_get_selected_subsong@Base 0.3.0
 openmpt_module_get_subsong_name@Base 0.2.7025~beta20.1
 openmpt_module_highlight_pattern_row_channel@Base 0.2.7025~beta20.1
 openmpt_module_highlight_pattern_row_channel_command@Base 0.2.7025~beta20.1
 openmpt_module_read_float_mono@Base 0.2.7025~beta20.1
 openmpt_module_read_float_quad@Base 0.2.7025~beta20.1
 openmpt_module_read_float_stereo@Base 0.2.7025~beta20.1
 openmpt_module_read_interleaved_float_quad@Base 0.2.7025~beta20.1
 openmpt_module_read_interleaved_float_stereo@Base 0.2.7025~beta20.1
 openmpt_module_read_interleaved_quad@Base 0.2.7025~beta20.1
 openmpt_module_read_interleaved_stereo@Base 0.2.7025~beta20.1
 openmpt_module_read_mono@Base 0.2.7025~beta20.1
 openmpt_module_read_quad@Base 0.2.7025~beta20.1
 openmpt_module_read_stereo@Base 0.2.7025~beta20.1
 openmpt_module_select_subsong@Base 0.2.7025~beta20.1
 openmpt_module_set_error_func@Base 0.3.0
 openmpt_module_set_log_func@Base 0.3.0
 openmpt_module_set_position_order_row@Base 0.2.7025~beta20.1
 openmpt_module_set_position_seconds@Base 0.2.7025~beta20.1
 openmpt_module_set_render_param@Base 0.2.7025~beta20.1
 openmpt_module_set_repeat_count@Base 0.2.7025~beta20.1
 openmpt_probe_file_header@Base 0.3.0
 openmpt_probe_file_header_from_stream@Base 0.3.0
 openmpt_probe_file_header_get_recommended_size@Base 0.3.0
 openmpt_probe_file_header_without_filesize@Base 0.3.0
